   1              		.file	"HelloCojac.c"
   9              	.Ltext0:
  10              		.cfi_sections	.debug_frame
  12              	longFromDouble:
  13              	.LFB0:
  14              		.file 1 "HelloCojac.c"
   1:HelloCojac.c  **** /*
   2:HelloCojac.c  ****  ============================================================================
   3:HelloCojac.c  ****  Name        : HelloCojac.c
   4:HelloCojac.c  ****  Author      : 
   5:HelloCojac.c  ****  Version     :
   6:HelloCojac.c  ****  Copyright   : Your copyright notice
   7:HelloCojac.c  ****  Description : Hello World in C, Ansi-style
   8:HelloCojac.c  ****  ============================================================================
   9:HelloCojac.c  ****  */
  10:HelloCojac.c  **** 
  11:HelloCojac.c  **** #include <limits.h>
  12:HelloCojac.c  **** 
  13:HelloCojac.c  **** #include <stdio.h>
  14:HelloCojac.c  **** #include <string.h>
  15:HelloCojac.c  **** #include <stdlib.h>
  16:HelloCojac.c  **** #include <stdint.h>
  17:HelloCojac.c  **** #include <float.h>
  18:HelloCojac.c  **** #include <math.h>
  19:HelloCojac.c  **** #include <inttypes.h>
  20:HelloCojac.c  **** 
  21:HelloCojac.c  **** //*--------------------------------------------------------------------*/
  22:HelloCojac.c  **** typedef double Double;
  23:HelloCojac.c  **** typedef float  Float;
  24:HelloCojac.c  **** typedef uint64_t ULong;
  25:HelloCojac.c  **** typedef  int64_t  Long;
  26:HelloCojac.c  **** typedef uint32_t UInt;
  27:HelloCojac.c  **** typedef  int32_t  Int;
  28:HelloCojac.c  **** typedef uint16_t UShort;
  29:HelloCojac.c  **** typedef  int16_t  Short;
  30:HelloCojac.c  **** typedef unsigned char UChar;
  31:HelloCojac.c  **** typedef   signed char  Char;
  32:HelloCojac.c  **** 
  33:HelloCojac.c  **** 
  34:HelloCojac.c  **** typedef union {
  35:HelloCojac.c  ****   UChar u;
  36:HelloCojac.c  ****   Char  s;
  37:HelloCojac.c  **** } mix8_t;
  38:HelloCojac.c  **** 
  39:HelloCojac.c  **** typedef union {
  40:HelloCojac.c  ****   UShort u;
  41:HelloCojac.c  ****   Short  s;
  42:HelloCojac.c  ****   struct {
  43:HelloCojac.c  ****     mix8_t h2;
  44:HelloCojac.c  ****     mix8_t h1;
  45:HelloCojac.c  ****   } halves;
  46:HelloCojac.c  **** } mix16_t;
  47:HelloCojac.c  **** 
  48:HelloCojac.c  **** typedef union {
  49:HelloCojac.c  ****   UInt  u;
  50:HelloCojac.c  ****   Int   s;
  51:HelloCojac.c  ****   Float f;
  52:HelloCojac.c  ****   struct {
  53:HelloCojac.c  ****     mix16_t h2;
  54:HelloCojac.c  ****     mix16_t h1;
  55:HelloCojac.c  ****   } halves;
  56:HelloCojac.c  **** } mix32_t;
  57:HelloCojac.c  **** 
  58:HelloCojac.c  **** typedef union {
  59:HelloCojac.c  ****   ULong   u;
  60:HelloCojac.c  ****   Long    s;
  61:HelloCojac.c  ****   Double  f;
  62:HelloCojac.c  ****   struct {
  63:HelloCojac.c  ****     mix32_t h2;
  64:HelloCojac.c  ****     mix32_t h1;
  65:HelloCojac.c  ****   } halves;
  66:HelloCojac.c  **** } mix64_t;
  67:HelloCojac.c  **** 
  68:HelloCojac.c  **** 
  69:HelloCojac.c  **** 
  70:HelloCojac.c  **** //------------- 64 <--> 64
  71:HelloCojac.c  **** static ULong longFromDouble(Double d) {
  15              		.loc 1 71 0
  16              		.cfi_startproc
  17 0000 55       		pushl	%ebp
  18              	.LCFI0:
  19              		.cfi_def_cfa_offset 8
  20 0001 89E5     		movl	%esp, %ebp
  21              		.cfi_offset 5, -8
  22              	.LCFI1:
  23              		.cfi_def_cfa_register 5
  24 0003 83EC18   		subl	$24, %esp
  25 0006 8B4508   		movl	8(%ebp), %eax
  26 0009 8945E8   		movl	%eax, -24(%ebp)
  27 000c 8B450C   		movl	12(%ebp), %eax
  28 000f 8945EC   		movl	%eax, -20(%ebp)
  72:HelloCojac.c  ****   mix64_t m; m.f=d; return m.u;
  29              		.loc 1 72 0
  30 0012 DD45E8   		fldl	-24(%ebp)
  31 0015 DD5DF8   		fstpl	-8(%ebp)
  32 0018 8B45F8   		movl	-8(%ebp), %eax
  33 001b 8B55FC   		movl	-4(%ebp), %edx
  73:HelloCojac.c  **** }
  34              		.loc 1 73 0
  35 001e C9       		leave
  36              		.cfi_restore 5
  37              	.LCFI2:
  38              		.cfi_def_cfa 4, 4
  39 001f C3       		ret
  40              		.cfi_endproc
  41              	.LFE0:
  44              	doubleFromLong:
  45              	.LFB1:
  74:HelloCojac.c  **** static double doubleFromLong(ULong l) {
  46              		.loc 1 74 0
  47              		.cfi_startproc
  48 0020 55       		pushl	%ebp
  49              	.LCFI3:
  50              		.cfi_def_cfa_offset 8
  51 0021 89E5     		movl	%esp, %ebp
  52              		.cfi_offset 5, -8
  53              	.LCFI4:
  54              		.cfi_def_cfa_register 5
  55 0023 83EC18   		subl	$24, %esp
  56 0026 8B4508   		movl	8(%ebp), %eax
  57 0029 8945E8   		movl	%eax, -24(%ebp)
  58 002c 8B450C   		movl	12(%ebp), %eax
  59 002f 8945EC   		movl	%eax, -20(%ebp)
  75:HelloCojac.c  ****   mix64_t m; m.u=l; return m.f;
  60              		.loc 1 75 0
  61 0032 8B45E8   		movl	-24(%ebp), %eax
  62 0035 8B55EC   		movl	-20(%ebp), %edx
  63 0038 8945F8   		movl	%eax, -8(%ebp)
  64 003b 8955FC   		movl	%edx, -4(%ebp)
  65 003e DD45F8   		fldl	-8(%ebp)
  76:HelloCojac.c  **** }
  66              		.loc 1 76 0
  67 0041 C9       		leave
  68              		.cfi_restore 5
  69              	.LCFI5:
  70              		.cfi_def_cfa 4, 4
  71 0042 C3       		ret
  72              		.cfi_endproc
  73              	.LFE1:
  76              	uintFromInt:
  77              	.LFB2:
  77:HelloCojac.c  **** //------------- 32 <--> 32
  78:HelloCojac.c  **** static UInt uintFromInt(Int s) {
  78              		.loc 1 78 0
  79              		.cfi_startproc
  80 0043 55       		pushl	%ebp
  81              	.LCFI6:
  82              		.cfi_def_cfa_offset 8
  83 0044 89E5     		movl	%esp, %ebp
  84              		.cfi_offset 5, -8
  85              	.LCFI7:
  86              		.cfi_def_cfa_register 5
  87 0046 83EC10   		subl	$16, %esp
  79:HelloCojac.c  ****   mix32_t m; m.s=s; return m.u;
  88              		.loc 1 79 0
  89 0049 8B4508   		movl	8(%ebp), %eax
  90 004c 8945FC   		movl	%eax, -4(%ebp)
  91 004f 8B45FC   		movl	-4(%ebp), %eax
  80:HelloCojac.c  **** }
  92              		.loc 1 80 0
  93 0052 C9       		leave
  94              		.cfi_restore 5
  95              	.LCFI8:
  96              		.cfi_def_cfa 4, 4
  97 0053 C3       		ret
  98              		.cfi_endproc
  99              	.LFE2:
 102              	intFromUInt:
 103              	.LFB3:
  81:HelloCojac.c  **** static Int intFromUInt(UInt u) {
 104              		.loc 1 81 0
 105              		.cfi_startproc
 106 0054 55       		pushl	%ebp
 107              	.LCFI9:
 108              		.cfi_def_cfa_offset 8
 109 0055 89E5     		movl	%esp, %ebp
 110              		.cfi_offset 5, -8
 111              	.LCFI10:
 112              		.cfi_def_cfa_register 5
 113 0057 83EC10   		subl	$16, %esp
  82:HelloCojac.c  ****   mix32_t m; m.u=u; return m.s;
 114              		.loc 1 82 0
 115 005a 8B4508   		movl	8(%ebp), %eax
 116 005d 8945FC   		movl	%eax, -4(%ebp)
 117 0060 8B45FC   		movl	-4(%ebp), %eax
  83:HelloCojac.c  **** }
 118              		.loc 1 83 0
 119 0063 C9       		leave
 120              		.cfi_restore 5
 121              	.LCFI11:
 122              		.cfi_def_cfa 4, 4
 123 0064 C3       		ret
 124              		.cfi_endproc
 125              	.LFE3:
 128              	floatFromInt:
 129              	.LFB4:
  84:HelloCojac.c  **** static Float floatFromInt(Int i) {
 130              		.loc 1 84 0
 131              		.cfi_startproc
 132 0065 55       		pushl	%ebp
 133              	.LCFI12:
 134              		.cfi_def_cfa_offset 8
 135 0066 89E5     		movl	%esp, %ebp
 136              		.cfi_offset 5, -8
 137              	.LCFI13:
 138              		.cfi_def_cfa_register 5
 139 0068 83EC14   		subl	$20, %esp
  85:HelloCojac.c  ****   mix32_t m; m.s=i; return m.f;
 140              		.loc 1 85 0
 141 006b 8B4508   		movl	8(%ebp), %eax
 142 006e 8945FC   		movl	%eax, -4(%ebp)
 143 0071 8B45FC   		movl	-4(%ebp), %eax
 144 0074 8945EC   		movl	%eax, -20(%ebp)
 145 0077 D945EC   		flds	-20(%ebp)
  86:HelloCojac.c  **** }
 146              		.loc 1 86 0
 147 007a C9       		leave
 148              		.cfi_restore 5
 149              	.LCFI14:
 150              		.cfi_def_cfa 4, 4
 151 007b C3       		ret
 152              		.cfi_endproc
 153              	.LFE4:
 156              	longFromTwoUInts:
 157              	.LFB5:
  87:HelloCojac.c  **** //------------- 32 <--> 64
  88:HelloCojac.c  **** static ULong longFromTwoUInts(UInt a, UInt b) {
 158              		.loc 1 88 0
 159              		.cfi_startproc
 160 007c 55       		pushl	%ebp
 161              	.LCFI15:
 162              		.cfi_def_cfa_offset 8
 163 007d 89E5     		movl	%esp, %ebp
 164              		.cfi_offset 5, -8
 165              	.LCFI16:
 166              		.cfi_def_cfa_register 5
 167 007f 56       		pushl	%esi
 168 0080 53       		pushl	%ebx
 169 0081 83EC10   		subl	$16, %esp
  89:HelloCojac.c  ****   ULong c= a;
 170              		.loc 1 89 0
 171 0084 8B4508   		movl	8(%ebp), %eax
 172 0087 BA000000 		movl	$0, %edx
 172      00
 173 008c 8945F0   		movl	%eax, -16(%ebp)
 174 008f 8955F4   		movl	%edx, -12(%ebp)
  90:HelloCojac.c  ****   c = (c<<32) | b;
 175              		.loc 1 90 0
 176 0092 8B45F0   		movl	-16(%ebp), %eax
 177 0095 8B55F4   		movl	-12(%ebp), %edx
 178 0098 89C1     		movl	%eax, %ecx
 179 009a 89D3     		movl	%edx, %ebx
 180              		.cfi_offset 3, -16
 181              		.cfi_offset 6, -12
 182 009c 89CB     		movl	%ecx, %ebx
 183 009e B9000000 		movl	$0, %ecx
 183      00
 184 00a3 8B450C   		movl	12(%ebp), %eax
 185 00a6 BA000000 		movl	$0, %edx
 185      00
 186 00ab 89CE     		movl	%ecx, %esi
 187 00ad 09C6     		orl	%eax, %esi
 188 00af 8975F0   		movl	%esi, -16(%ebp)
 189 00b2 89D8     		movl	%ebx, %eax
 190 00b4 09D0     		orl	%edx, %eax
 191 00b6 8945F4   		movl	%eax, -12(%ebp)
  91:HelloCojac.c  ****   return c;
 192              		.loc 1 91 0
 193 00b9 8B45F0   		movl	-16(%ebp), %eax
 194 00bc 8B55F4   		movl	-12(%ebp), %edx
  92:HelloCojac.c  **** }
 195              		.loc 1 92 0
 196 00bf 83C410   		addl	$16, %esp
 197 00c2 5B       		popl	%ebx
 198              		.cfi_restore 3
 199 00c3 5E       		popl	%esi
 200              		.cfi_restore 6
 201 00c4 5D       		popl	%ebp
 202              		.cfi_restore 5
 203              	.LCFI17:
 204              		.cfi_def_cfa 4, 4
 205 00c5 C3       		ret
 206              		.cfi_endproc
 207              	.LFE5:
 210              	longFromTwoUInts_New:
 211              	.LFB6:
  93:HelloCojac.c  **** static ULong longFromTwoUInts_New(UInt a, UInt b) {
 212              		.loc 1 93 0
 213              		.cfi_startproc
 214 00c6 55       		pushl	%ebp
 215              	.LCFI18:
 216              		.cfi_def_cfa_offset 8
 217 00c7 89E5     		movl	%esp, %ebp
 218              		.cfi_offset 5, -8
 219              	.LCFI19:
 220              		.cfi_def_cfa_register 5
 221 00c9 83EC10   		subl	$16, %esp
  94:HelloCojac.c  ****   mix64_t m; m.halves.h1.u=a; m.halves.h2.u=b;
 222              		.loc 1 94 0
 223 00cc 8B4508   		movl	8(%ebp), %eax
 224 00cf 8945FC   		movl	%eax, -4(%ebp)
 225 00d2 8B450C   		movl	12(%ebp), %eax
 226 00d5 8945F8   		movl	%eax, -8(%ebp)
  95:HelloCojac.c  ****   return m.u;
 227              		.loc 1 95 0
 228 00d8 8B45F8   		movl	-8(%ebp), %eax
 229 00db 8B55FC   		movl	-4(%ebp), %edx
  96:HelloCojac.c  **** }
 230              		.loc 1 96 0
 231 00de C9       		leave
 232              		.cfi_restore 5
 233              	.LCFI20:
 234              		.cfi_def_cfa 4, 4
 235 00df C3       		ret
 236              		.cfi_endproc
 237              	.LFE6:
 240              	longFromTwoInts:
 241              	.LFB7:
  97:HelloCojac.c  **** 
  98:HelloCojac.c  **** static ULong longFromTwoInts(Int a, Int b) {
 242              		.loc 1 98 0
 243              		.cfi_startproc
 244 00e0 55       		pushl	%ebp
 245              	.LCFI21:
 246              		.cfi_def_cfa_offset 8
 247 00e1 89E5     		movl	%esp, %ebp
 248              		.cfi_offset 5, -8
 249              	.LCFI22:
 250              		.cfi_def_cfa_register 5
 251 00e3 53       		pushl	%ebx
 252 00e4 83EC0C   		subl	$12, %esp
  99:HelloCojac.c  ****   return longFromTwoUInts(uintFromInt(a), uintFromInt(b));
 253              		.loc 1 99 0
 254 00e7 8B450C   		movl	12(%ebp), %eax
 255 00ea 890424   		movl	%eax, (%esp)
 256              		.cfi_offset 3, -12
 257 00ed E851FFFF 		call	uintFromInt
 257      FF
 258 00f2 89C3     		movl	%eax, %ebx
 259 00f4 8B4508   		movl	8(%ebp), %eax
 260 00f7 890424   		movl	%eax, (%esp)
 261 00fa E844FFFF 		call	uintFromInt
 261      FF
 262 00ff 895C2404 		movl	%ebx, 4(%esp)
 263 0103 890424   		movl	%eax, (%esp)
 264 0106 E871FFFF 		call	longFromTwoUInts
 264      FF
 100:HelloCojac.c  **** }
 265              		.loc 1 100 0
 266 010b 83C40C   		addl	$12, %esp
 267 010e 5B       		popl	%ebx
 268              		.cfi_restore 3
 269 010f 5D       		popl	%ebp
 270              		.cfi_restore 5
 271              	.LCFI23:
 272              		.cfi_def_cfa 4, 4
 273 0110 C3       		ret
 274              		.cfi_endproc
 275              	.LFE7:
 278              	longToTwoUInts:
 279              	.LFB8:
 101:HelloCojac.c  **** static void longToTwoUInts(ULong d, UInt *a, UInt *b) {
 280              		.loc 1 101 0
 281              		.cfi_startproc
 282 0111 55       		pushl	%ebp
 283              	.LCFI24:
 284              		.cfi_def_cfa_offset 8
 285 0112 89E5     		movl	%esp, %ebp
 286              		.cfi_offset 5, -8
 287              	.LCFI25:
 288              		.cfi_def_cfa_register 5
 289 0114 83EC08   		subl	$8, %esp
 290 0117 8B4508   		movl	8(%ebp), %eax
 291 011a 8945F8   		movl	%eax, -8(%ebp)
 292 011d 8B450C   		movl	12(%ebp), %eax
 293 0120 8945FC   		movl	%eax, -4(%ebp)
 102:HelloCojac.c  ****   *b = d;
 294              		.loc 1 102 0
 295 0123 8B55F8   		movl	-8(%ebp), %edx
 296 0126 8B4514   		movl	20(%ebp), %eax
 297 0129 8910     		movl	%edx, (%eax)
 103:HelloCojac.c  ****   *a = d>>32;
 298              		.loc 1 103 0
 299 012b 8B45F8   		movl	-8(%ebp), %eax
 300 012e 8B55FC   		movl	-4(%ebp), %edx
 301 0131 89D0     		movl	%edx, %eax
 302 0133 31D2     		xorl	%edx, %edx
 303 0135 89C2     		movl	%eax, %edx
 304 0137 8B4510   		movl	16(%ebp), %eax
 305 013a 8910     		movl	%edx, (%eax)
 104:HelloCojac.c  **** }
 306              		.loc 1 104 0
 307 013c C9       		leave
 308              		.cfi_restore 5
 309              	.LCFI26:
 310              		.cfi_def_cfa 4, 4
 311 013d C3       		ret
 312              		.cfi_endproc
 313              	.LFE8:
 316              	longToTwoUInts_New:
 317              	.LFB9:
 105:HelloCojac.c  **** static void longToTwoUInts_New(ULong d, UInt *a, UInt *b) {
 318              		.loc 1 105 0
 319              		.cfi_startproc
 320 013e 55       		pushl	%ebp
 321              	.LCFI27:
 322              		.cfi_def_cfa_offset 8
 323 013f 89E5     		movl	%esp, %ebp
 324              		.cfi_offset 5, -8
 325              	.LCFI28:
 326              		.cfi_def_cfa_register 5
 327 0141 83EC18   		subl	$24, %esp
 328 0144 8B4508   		movl	8(%ebp), %eax
 329 0147 8945E8   		movl	%eax, -24(%ebp)
 330 014a 8B450C   		movl	12(%ebp), %eax
 331 014d 8945EC   		movl	%eax, -20(%ebp)
 106:HelloCojac.c  ****   mix64_t m; m.u=d;
 332              		.loc 1 106 0
 333 0150 8B45E8   		movl	-24(%ebp), %eax
 334 0153 8B55EC   		movl	-20(%ebp), %edx
 335 0156 8945F8   		movl	%eax, -8(%ebp)
 336 0159 8955FC   		movl	%edx, -4(%ebp)
 107:HelloCojac.c  ****   *a = m.halves.h1.u;
 337              		.loc 1 107 0
 338 015c 8B55FC   		movl	-4(%ebp), %edx
 339 015f 8B4510   		movl	16(%ebp), %eax
 340 0162 8910     		movl	%edx, (%eax)
 108:HelloCojac.c  ****   *b = m.halves.h2.u;
 341              		.loc 1 108 0
 342 0164 8B55F8   		movl	-8(%ebp), %edx
 343 0167 8B4514   		movl	20(%ebp), %eax
 344 016a 8910     		movl	%edx, (%eax)
 109:HelloCojac.c  **** }
 345              		.loc 1 109 0
 346 016c C9       		leave
 347              		.cfi_restore 5
 348              	.LCFI29:
 349              		.cfi_def_cfa 4, 4
 350 016d C3       		ret
 351              		.cfi_endproc
 352              	.LFE9:
 355              	longToTwoInts:
 356              	.LFB10:
 110:HelloCojac.c  **** 
 111:HelloCojac.c  **** static void longToTwoInts(ULong d, Int *a, Int *b) {
 357              		.loc 1 111 0
 358              		.cfi_startproc
 359 016e 55       		pushl	%ebp
 360              	.LCFI30:
 361              		.cfi_def_cfa_offset 8
 362 016f 89E5     		movl	%esp, %ebp
 363              		.cfi_offset 5, -8
 364              	.LCFI31:
 365              		.cfi_def_cfa_register 5
 366 0171 83EC28   		subl	$40, %esp
 367 0174 8B4508   		movl	8(%ebp), %eax
 368 0177 8945E8   		movl	%eax, -24(%ebp)
 369 017a 8B450C   		movl	12(%ebp), %eax
 370 017d 8945EC   		movl	%eax, -20(%ebp)
 112:HelloCojac.c  ****   UInt ua, ub;
 113:HelloCojac.c  ****   longToTwoUInts(d, &ua, &ub);
 371              		.loc 1 113 0
 372 0180 8D45F8   		leal	-8(%ebp), %eax
 373 0183 8944240C 		movl	%eax, 12(%esp)
 374 0187 8D45FC   		leal	-4(%ebp), %eax
 375 018a 89442408 		movl	%eax, 8(%esp)
 376 018e 8B45E8   		movl	-24(%ebp), %eax
 377 0191 8B55EC   		movl	-20(%ebp), %edx
 378 0194 890424   		movl	%eax, (%esp)
 379 0197 89542404 		movl	%edx, 4(%esp)
 380 019b E871FFFF 		call	longToTwoUInts
 380      FF
 114:HelloCojac.c  ****   *a=intFromUInt(ua);
 381              		.loc 1 114 0
 382 01a0 8B45FC   		movl	-4(%ebp), %eax
 383 01a3 890424   		movl	%eax, (%esp)
 384 01a6 E8A9FEFF 		call	intFromUInt
 384      FF
 385 01ab 8B5510   		movl	16(%ebp), %edx
 386 01ae 8902     		movl	%eax, (%edx)
 115:HelloCojac.c  ****   *b=intFromUInt(ub);
 387              		.loc 1 115 0
 388 01b0 8B45F8   		movl	-8(%ebp), %eax
 389 01b3 890424   		movl	%eax, (%esp)
 390 01b6 E899FEFF 		call	intFromUInt
 390      FF
 391 01bb 8B5514   		movl	20(%ebp), %edx
 392 01be 8902     		movl	%eax, (%edx)
 116:HelloCojac.c  **** }
 393              		.loc 1 116 0
 394 01c0 C9       		leave
 395              		.cfi_restore 5
 396              	.LCFI32:
 397              		.cfi_def_cfa 4, 4
 398 01c1 C3       		ret
 399              		.cfi_endproc
 400              	.LFE10:
 403              	doubleFromTwoUInts:
 404              	.LFB11:
 117:HelloCojac.c  **** static double doubleFromTwoUInts(UInt a, UInt b) {
 405              		.loc 1 117 0
 406              		.cfi_startproc
 407 01c2 55       		pushl	%ebp
 408              	.LCFI33:
 409              		.cfi_def_cfa_offset 8
 410 01c3 89E5     		movl	%esp, %ebp
 411              		.cfi_offset 5, -8
 412              	.LCFI34:
 413              		.cfi_def_cfa_register 5
 414 01c5 83EC18   		subl	$24, %esp
 118:HelloCojac.c  ****   ULong c= longFromTwoUInts(a,b);
 415              		.loc 1 118 0
 416 01c8 8B450C   		movl	12(%ebp), %eax
 417 01cb 89442404 		movl	%eax, 4(%esp)
 418 01cf 8B4508   		movl	8(%ebp), %eax
 419 01d2 890424   		movl	%eax, (%esp)
 420 01d5 E8A2FEFF 		call	longFromTwoUInts
 420      FF
 421 01da 8945F8   		movl	%eax, -8(%ebp)
 422 01dd 8955FC   		movl	%edx, -4(%ebp)
 119:HelloCojac.c  ****   return doubleFromLong(c);
 423              		.loc 1 119 0
 424 01e0 8B45F8   		movl	-8(%ebp), %eax
 425 01e3 8B55FC   		movl	-4(%ebp), %edx
 426 01e6 890424   		movl	%eax, (%esp)
 427 01e9 89542404 		movl	%edx, 4(%esp)
 428 01ed E82EFEFF 		call	doubleFromLong
 428      FF
 120:HelloCojac.c  **** }
 429              		.loc 1 120 0
 430 01f2 C9       		leave
 431              		.cfi_restore 5
 432              	.LCFI35:
 433              		.cfi_def_cfa 4, 4
 434 01f3 C3       		ret
 435              		.cfi_endproc
 436              	.LFE11:
 439              	doubleFromTwoInts:
 440              	.LFB12:
 121:HelloCojac.c  **** static double doubleFromTwoInts(Int a, Int b) {
 441              		.loc 1 121 0
 442              		.cfi_startproc
 443 01f4 55       		pushl	%ebp
 444              	.LCFI36:
 445              		.cfi_def_cfa_offset 8
 446 01f5 89E5     		movl	%esp, %ebp
 447              		.cfi_offset 5, -8
 448              	.LCFI37:
 449              		.cfi_def_cfa_register 5
 450 01f7 53       		pushl	%ebx
 451 01f8 83EC0C   		subl	$12, %esp
 122:HelloCojac.c  ****   return doubleFromTwoUInts(uintFromInt(a), uintFromInt(b));
 452              		.loc 1 122 0
 453 01fb 8B450C   		movl	12(%ebp), %eax
 454 01fe 890424   		movl	%eax, (%esp)
 455              		.cfi_offset 3, -12
 456 0201 E83DFEFF 		call	uintFromInt
 456      FF
 457 0206 89C3     		movl	%eax, %ebx
 458 0208 8B4508   		movl	8(%ebp), %eax
 459 020b 890424   		movl	%eax, (%esp)
 460 020e E830FEFF 		call	uintFromInt
 460      FF
 461 0213 895C2404 		movl	%ebx, 4(%esp)
 462 0217 890424   		movl	%eax, (%esp)
 463 021a E8A3FFFF 		call	doubleFromTwoUInts
 463      FF
 123:HelloCojac.c  **** }
 464              		.loc 1 123 0
 465 021f 83C40C   		addl	$12, %esp
 466 0222 5B       		popl	%ebx
 467              		.cfi_restore 3
 468 0223 5D       		popl	%ebp
 469              		.cfi_restore 5
 470              	.LCFI38:
 471              		.cfi_def_cfa 4, 4
 472 0224 C3       		ret
 473              		.cfi_endproc
 474              	.LFE12:
 477              	doubleToTwoUInts:
 478              	.LFB13:
 124:HelloCojac.c  **** static void doubleToTwoUInts(double d, UInt *a, UInt *b) {
 479              		.loc 1 124 0
 480              		.cfi_startproc
 481 0225 55       		pushl	%ebp
 482              	.LCFI39:
 483              		.cfi_def_cfa_offset 8
 484 0226 89E5     		movl	%esp, %ebp
 485              		.cfi_offset 5, -8
 486              	.LCFI40:
 487              		.cfi_def_cfa_register 5
 488 0228 83EC18   		subl	$24, %esp
 489 022b 8B4508   		movl	8(%ebp), %eax
 490 022e 8945F8   		movl	%eax, -8(%ebp)
 491 0231 8B450C   		movl	12(%ebp), %eax
 492 0234 8945FC   		movl	%eax, -4(%ebp)
 125:HelloCojac.c  ****   longToTwoUInts(longFromDouble(d), a, b);
 493              		.loc 1 125 0
 494 0237 DD45F8   		fldl	-8(%ebp)
 495 023a DD1C24   		fstpl	(%esp)
 496 023d E8BEFDFF 		call	longFromDouble
 496      FF
 497 0242 8B4D14   		movl	20(%ebp), %ecx
 498 0245 894C240C 		movl	%ecx, 12(%esp)
 499 0249 8B4D10   		movl	16(%ebp), %ecx
 500 024c 894C2408 		movl	%ecx, 8(%esp)
 501 0250 890424   		movl	%eax, (%esp)
 502 0253 89542404 		movl	%edx, 4(%esp)
 503 0257 E8B5FEFF 		call	longToTwoUInts
 503      FF
 126:HelloCojac.c  **** }
 504              		.loc 1 126 0
 505 025c C9       		leave
 506              		.cfi_restore 5
 507              	.LCFI41:
 508              		.cfi_def_cfa 4, 4
 509 025d C3       		ret
 510              		.cfi_endproc
 511              	.LFE13:
 514              	doubleToTwoInts:
 515              	.LFB14:
 127:HelloCojac.c  **** static void doubleToTwoInts(double d, Int *a, Int *b) {
 516              		.loc 1 127 0
 517              		.cfi_startproc
 518 025e 55       		pushl	%ebp
 519              	.LCFI42:
 520              		.cfi_def_cfa_offset 8
 521 025f 89E5     		movl	%esp, %ebp
 522              		.cfi_offset 5, -8
 523              	.LCFI43:
 524              		.cfi_def_cfa_register 5
 525 0261 83EC28   		subl	$40, %esp
 526 0264 8B4508   		movl	8(%ebp), %eax
 527 0267 8945E8   		movl	%eax, -24(%ebp)
 528 026a 8B450C   		movl	12(%ebp), %eax
 529 026d 8945EC   		movl	%eax, -20(%ebp)
 128:HelloCojac.c  ****   UInt ua, ub;
 129:HelloCojac.c  ****   doubleToTwoUInts(d, &ua, &ub);
 530              		.loc 1 129 0
 531 0270 8D45F8   		leal	-8(%ebp), %eax
 532 0273 8944240C 		movl	%eax, 12(%esp)
 533 0277 8D45FC   		leal	-4(%ebp), %eax
 534 027a 89442408 		movl	%eax, 8(%esp)
 535 027e DD45E8   		fldl	-24(%ebp)
 536 0281 DD1C24   		fstpl	(%esp)
 537 0284 E89CFFFF 		call	doubleToTwoUInts
 537      FF
 130:HelloCojac.c  ****   *a=intFromUInt(ua);
 538              		.loc 1 130 0
 539 0289 8B45FC   		movl	-4(%ebp), %eax
 540 028c 890424   		movl	%eax, (%esp)
 541 028f E8C0FDFF 		call	intFromUInt
 541      FF
 542 0294 8B5510   		movl	16(%ebp), %edx
 543 0297 8902     		movl	%eax, (%edx)
 131:HelloCojac.c  ****   *b=intFromUInt(ub);
 544              		.loc 1 131 0
 545 0299 8B45F8   		movl	-8(%ebp), %eax
 546 029c 890424   		movl	%eax, (%esp)
 547 029f E8B0FDFF 		call	intFromUInt
 547      FF
 548 02a4 8B5514   		movl	20(%ebp), %edx
 549 02a7 8902     		movl	%eax, (%edx)
 132:HelloCojac.c  **** }
 550              		.loc 1 132 0
 551 02a9 C9       		leave
 552              		.cfi_restore 5
 553              	.LCFI44:
 554              		.cfi_def_cfa 4, 4
 555 02aa C3       		ret
 556              		.cfi_endproc
 557              	.LFE14:
 559              	.globl shortFromInt
 561              	shortFromInt:
 562              	.LFB15:
 133:HelloCojac.c  **** 
 134:HelloCojac.c  **** //------------- 32 <--> 16
 135:HelloCojac.c  **** Short shortFromInt(Int i) {
 563              		.loc 1 135 0
 564              		.cfi_startproc
 565 02ab 55       		pushl	%ebp
 566              	.LCFI45:
 567              		.cfi_def_cfa_offset 8
 568 02ac 89E5     		movl	%esp, %ebp
 569              		.cfi_offset 5, -8
 570              	.LCFI46:
 571              		.cfi_def_cfa_register 5
 572 02ae 83EC10   		subl	$16, %esp
 136:HelloCojac.c  ****   mix32_t m; m.s=i; return m.halves.h1.s;
 573              		.loc 1 136 0
 574 02b1 8B4508   		movl	8(%ebp), %eax
 575 02b4 8945FC   		movl	%eax, -4(%ebp)
 576 02b7 0FB745FE 		movzwl	-2(%ebp), %eax
 137:HelloCojac.c  **** }
 577              		.loc 1 137 0
 578 02bb C9       		leave
 579              		.cfi_restore 5
 580              	.LCFI47:
 581              		.cfi_def_cfa 4, 4
 582 02bc C3       		ret
 583              		.cfi_endproc
 584              	.LFE15:
 586              		.data
 587              		.align 4
 590              	glob:
 591 0000 55000000 		.long	85
 592              		.text
 594              	add32:
 595              	.LFB16:
 138:HelloCojac.c  **** 
 139:HelloCojac.c  **** 
 140:HelloCojac.c  **** 
 141:HelloCojac.c  **** 
 142:HelloCojac.c  **** 
 143:HelloCojac.c  **** 
 144:HelloCojac.c  **** 
 145:HelloCojac.c  **** //------------------------------------------------
 146:HelloCojac.c  **** static int glob=85;
 147:HelloCojac.c  **** static signed int   add32(signed int   a, signed int   b) {
 596              		.loc 1 147 0
 597              		.cfi_startproc
 598 02bd 55       		pushl	%ebp
 599              	.LCFI48:
 600              		.cfi_def_cfa_offset 8
 601 02be 89E5     		movl	%esp, %ebp
 602              		.cfi_offset 5, -8
 603              	.LCFI49:
 604              		.cfi_def_cfa_register 5
 148:HelloCojac.c  ****   //printf("add32 %d + %d \n", a, b);
 149:HelloCojac.c  ****   return a+b;
 605              		.loc 1 149 0
 606 02c0 8B450C   		movl	12(%ebp), %eax
 607 02c3 8B5508   		movl	8(%ebp), %edx
 608 02c6 8D0402   		leal	(%edx,%eax), %eax
 150:HelloCojac.c  **** }
 609              		.loc 1 150 0
 610 02c9 5D       		popl	%ebp
 611              		.cfi_restore 5
 612              	.LCFI50:
 613              		.cfi_def_cfa 4, 4
 614 02ca C3       		ret
 615              		.cfi_endproc
 616              	.LFE16:
 619              	addU32:
 620              	.LFB17:
 151:HelloCojac.c  **** static unsigned int   addU32(unsigned int   a, unsigned int   b) {
 621              		.loc 1 151 0
 622              		.cfi_startproc
 623 02cb 55       		pushl	%ebp
 624              	.LCFI51:
 625              		.cfi_def_cfa_offset 8
 626 02cc 89E5     		movl	%esp, %ebp
 627              		.cfi_offset 5, -8
 628              	.LCFI52:
 629              		.cfi_def_cfa_register 5
 152:HelloCojac.c  ****   //printf("addU32 %u + %u \n", a, b);
 153:HelloCojac.c  ****   return a+b;
 630              		.loc 1 153 0
 631 02ce 8B450C   		movl	12(%ebp), %eax
 632 02d1 8B5508   		movl	8(%ebp), %edx
 633 02d4 8D0402   		leal	(%edx,%eax), %eax
 154:HelloCojac.c  **** }
 634              		.loc 1 154 0
 635 02d7 5D       		popl	%ebp
 636              		.cfi_restore 5
 637              	.LCFI53:
 638              		.cfi_def_cfa 4, 4
 639 02d8 C3       		ret
 640              		.cfi_endproc
 641              	.LFE17:
 644              	add16:
 645              	.LFB18:
 155:HelloCojac.c  **** static signed short add16(signed short a, signed short b) {return a+b;}
 646              		.loc 1 155 0
 647              		.cfi_startproc
 648 02d9 55       		pushl	%ebp
 649              	.LCFI54:
 650              		.cfi_def_cfa_offset 8
 651 02da 89E5     		movl	%esp, %ebp
 652              		.cfi_offset 5, -8
 653              	.LCFI55:
 654              		.cfi_def_cfa_register 5
 655 02dc 83EC08   		subl	$8, %esp
 656 02df 8B5508   		movl	8(%ebp), %edx
 657 02e2 8B450C   		movl	12(%ebp), %eax
 658 02e5 668955FC 		movw	%dx, -4(%ebp)
 659 02e9 668945F8 		movw	%ax, -8(%ebp)
 660              		.loc 1 155 0
 661 02ed 0FB755FC 		movzwl	-4(%ebp), %edx
 662 02f1 0FB745F8 		movzwl	-8(%ebp), %eax
 663 02f5 8D0402   		leal	(%edx,%eax), %eax
 664 02f8 C9       		leave
 665              		.cfi_restore 5
 666              	.LCFI56:
 667              		.cfi_def_cfa 4, 4
 668 02f9 C3       		ret
 669              		.cfi_endproc
 670              	.LFE18:
 673              	cast32to16:
 674              	.LFB19:
 156:HelloCojac.c  **** static signed short cast32to16(signed int a)              {return (signed short)(a); }
 675              		.loc 1 156 0
 676              		.cfi_startproc
 677 02fa 55       		pushl	%ebp
 678              	.LCFI57:
 679              		.cfi_def_cfa_offset 8
 680 02fb 89E5     		movl	%esp, %ebp
 681              		.cfi_offset 5, -8
 682              	.LCFI58:
 683              		.cfi_def_cfa_register 5
 684              		.loc 1 156 0
 685 02fd 8B4508   		movl	8(%ebp), %eax
 686 0300 5D       		popl	%ebp
 687              		.cfi_restore 5
 688              	.LCFI59:
 689              		.cfi_def_cfa 4, 4
 690 0301 C3       		ret
 691              		.cfi_endproc
 692              	.LFE19:
 694              		.section	.rodata
 695              	.LC1:
 696 0000 61646436 		.string	"add64 %lld + %lld \n"
 696      3420256C 
 696      6C64202B 
 696      20256C6C 
 696      64200A00 
 697              		.text
 699              	add64:
 700              	.LFB20:
 157:HelloCojac.c  **** static int64_t add64(int64_t a, int64_t b) {
 701              		.loc 1 157 0
 702              		.cfi_startproc
 703 0302 55       		pushl	%ebp
 704              	.LCFI60:
 705              		.cfi_def_cfa_offset 8
 706 0303 89E5     		movl	%esp, %ebp
 707              		.cfi_offset 5, -8
 708              	.LCFI61:
 709              		.cfi_def_cfa_register 5
 710 0305 53       		pushl	%ebx
 711 0306 83EC34   		subl	$52, %esp
 712 0309 8B4508   		movl	8(%ebp), %eax
 713 030c 8945F0   		movl	%eax, -16(%ebp)
 714 030f 8B450C   		movl	12(%ebp), %eax
 715 0312 8945F4   		movl	%eax, -12(%ebp)
 716 0315 8B4510   		movl	16(%ebp), %eax
 717 0318 8945E8   		movl	%eax, -24(%ebp)
 718 031b 8B4514   		movl	20(%ebp), %eax
 719 031e 8945EC   		movl	%eax, -20(%ebp)
 158:HelloCojac.c  ****   printf("add64 %"PRId64 " + %"PRId64" \n", a, b);
 720              		.loc 1 158 0
 721 0321 B9000000 		movl	$.LC1, %ecx
 721      00
 722 0326 8B45E8   		movl	-24(%ebp), %eax
 723 0329 8B55EC   		movl	-20(%ebp), %edx
 724 032c 8944240C 		movl	%eax, 12(%esp)
 725 0330 89542410 		movl	%edx, 16(%esp)
 726 0334 8B45F0   		movl	-16(%ebp), %eax
 727 0337 8B55F4   		movl	-12(%ebp), %edx
 728 033a 89442404 		movl	%eax, 4(%esp)
 729 033e 89542408 		movl	%edx, 8(%esp)
 730 0342 890C24   		movl	%ecx, (%esp)
 731              		.cfi_offset 3, -12
 732 0345 E8FCFFFF 		call	printf
 732      FF
 159:HelloCojac.c  ****   return a+b;
 733              		.loc 1 159 0
 734 034a 8B45E8   		movl	-24(%ebp), %eax
 735 034d 8B55EC   		movl	-20(%ebp), %edx
 736 0350 8B4DF0   		movl	-16(%ebp), %ecx
 737 0353 8B5DF4   		movl	-12(%ebp), %ebx
 738 0356 01C8     		addl	%ecx, %eax
 739 0358 11DA     		adcl	%ebx, %edx
 160:HelloCojac.c  **** }
 740              		.loc 1 160 0
 741 035a 83C434   		addl	$52, %esp
 742 035d 5B       		popl	%ebx
 743              		.cfi_restore 3
 744 035e 5D       		popl	%ebp
 745              		.cfi_restore 5
 746              	.LCFI62:
 747              		.cfi_def_cfa 4, 4
 748 035f C3       		ret
 749              		.cfi_endproc
 750              	.LFE20:
 752              		.section	.rodata
 753              	.LC2:
 754 0014 61646455 		.string	"addU64 %llu + %llu \n"
 754      36342025 
 754      6C6C7520 
 754      2B20256C 
 754      6C75200A 
 755              		.text
 757              	addU64:
 758              	.LFB21:
 161:HelloCojac.c  **** static uint64_t addU64(uint64_t a, uint64_t b) {
 759              		.loc 1 161 0
 760              		.cfi_startproc
 761 0360 55       		pushl	%ebp
 762              	.LCFI63:
 763              		.cfi_def_cfa_offset 8
 764 0361 89E5     		movl	%esp, %ebp
 765              		.cfi_offset 5, -8
 766              	.LCFI64:
 767              		.cfi_def_cfa_register 5
 768 0363 53       		pushl	%ebx
 769 0364 83EC34   		subl	$52, %esp
 770 0367 8B4508   		movl	8(%ebp), %eax
 771 036a 8945F0   		movl	%eax, -16(%ebp)
 772 036d 8B450C   		movl	12(%ebp), %eax
 773 0370 8945F4   		movl	%eax, -12(%ebp)
 774 0373 8B4510   		movl	16(%ebp), %eax
 775 0376 8945E8   		movl	%eax, -24(%ebp)
 776 0379 8B4514   		movl	20(%ebp), %eax
 777 037c 8945EC   		movl	%eax, -20(%ebp)
 162:HelloCojac.c  ****   printf("addU64 %"PRIu64 " + %"PRIu64 " \n", a, b);
 778              		.loc 1 162 0
 779 037f B9140000 		movl	$.LC2, %ecx
 779      00
 780 0384 8B45E8   		movl	-24(%ebp), %eax
 781 0387 8B55EC   		movl	-20(%ebp), %edx
 782 038a 8944240C 		movl	%eax, 12(%esp)
 783 038e 89542410 		movl	%edx, 16(%esp)
 784 0392 8B45F0   		movl	-16(%ebp), %eax
 785 0395 8B55F4   		movl	-12(%ebp), %edx
 786 0398 89442404 		movl	%eax, 4(%esp)
 787 039c 89542408 		movl	%edx, 8(%esp)
 788 03a0 890C24   		movl	%ecx, (%esp)
 789              		.cfi_offset 3, -12
 790 03a3 E8FCFFFF 		call	printf
 790      FF
 163:HelloCojac.c  ****   return a+b;
 791              		.loc 1 163 0
 792 03a8 8B45E8   		movl	-24(%ebp), %eax
 793 03ab 8B55EC   		movl	-20(%ebp), %edx
 794 03ae 8B4DF0   		movl	-16(%ebp), %ecx
 795 03b1 8B5DF4   		movl	-12(%ebp), %ebx
 796 03b4 01C8     		addl	%ecx, %eax
 797 03b6 11DA     		adcl	%ebx, %edx
 164:HelloCojac.c  **** }
 798              		.loc 1 164 0
 799 03b8 83C434   		addl	$52, %esp
 800 03bb 5B       		popl	%ebx
 801              		.cfi_restore 3
 802 03bc 5D       		popl	%ebp
 803              		.cfi_restore 5
 804              	.LCFI65:
 805              		.cfi_def_cfa 4, 4
 806 03bd C3       		ret
 807              		.cfi_endproc
 808              	.LFE21:
 811              	addFloat:
 812              	.LFB22:
 165:HelloCojac.c  **** static float addFloat(float a, float b) {int res=a+b+0x7775; return res;}
 813              		.loc 1 165 0
 814              		.cfi_startproc
 815 03be 55       		pushl	%ebp
 816              	.LCFI66:
 817              		.cfi_def_cfa_offset 8
 818 03bf 89E5     		movl	%esp, %ebp
 819              		.cfi_offset 5, -8
 820              	.LCFI67:
 821              		.cfi_def_cfa_register 5
 822 03c1 83EC14   		subl	$20, %esp
 823              		.loc 1 165 0
 824 03c4 D94508   		flds	8(%ebp)
 825 03c7 D8450C   		fadds	12(%ebp)
 826 03ca D905DC00 		flds	.LC3
 826      0000
 827 03d0 DEC1     		faddp	%st, %st(1)
 828 03d2 D97DEE   		fnstcw	-18(%ebp)
 829 03d5 0FB745EE 		movzwl	-18(%ebp), %eax
 830 03d9 B40C     		movb	$12, %ah
 831 03db 668945EC 		movw	%ax, -20(%ebp)
 832 03df D96DEC   		fldcw	-20(%ebp)
 833 03e2 DB5DFC   		fistpl	-4(%ebp)
 834 03e5 D96DEE   		fldcw	-18(%ebp)
 835 03e8 DB45FC   		fildl	-4(%ebp)
 836 03eb C9       		leave
 837              		.cfi_restore 5
 838              	.LCFI68:
 839              		.cfi_def_cfa 4, 4
 840 03ec C3       		ret
 841              		.cfi_endproc
 842              	.LFE22:
 845              	addDouble:
 846              	.LFB23:
 166:HelloCojac.c  **** static double addDouble(double a, double b) {
 847              		.loc 1 166 0
 848              		.cfi_startproc
 849 03ed 55       		pushl	%ebp
 850              	.LCFI69:
 851              		.cfi_def_cfa_offset 8
 852 03ee 89E5     		movl	%esp, %ebp
 853              		.cfi_offset 5, -8
 854              	.LCFI70:
 855              		.cfi_def_cfa_register 5
 856 03f0 83EC10   		subl	$16, %esp
 857 03f3 8B4508   		movl	8(%ebp), %eax
 858 03f6 8945F8   		movl	%eax, -8(%ebp)
 859 03f9 8B450C   		movl	12(%ebp), %eax
 860 03fc 8945FC   		movl	%eax, -4(%ebp)
 861 03ff 8B4510   		movl	16(%ebp), %eax
 862 0402 8945F0   		movl	%eax, -16(%ebp)
 863 0405 8B4514   		movl	20(%ebp), %eax
 864 0408 8945F4   		movl	%eax, -12(%ebp)
 167:HelloCojac.c  **** //  printf("addDouble %f + %f (%llu + %llu)", a, b, longFromDouble(a), longFromDouble(b));
 168:HelloCojac.c  **** //  uint32_t u1, u2;
 169:HelloCojac.c  **** //  doubleToTwoUInts(a, &u1, &u2);
 170:HelloCojac.c  **** //  printf(" %u/%u ", u1, u2);
 171:HelloCojac.c  **** //  doubleToTwoUInts(b, &u1, &u2);
 172:HelloCojac.c  **** //  printf("+ %u/%u \n", u1, u2);
 173:HelloCojac.c  **** 
 174:HelloCojac.c  ****   return a+b;
 865              		.loc 1 174 0
 866 040b DD45F8   		fldl	-8(%ebp)
 867 040e DC45F0   		faddl	-16(%ebp)
 175:HelloCojac.c  **** }
 868              		.loc 1 175 0
 869 0411 C9       		leave
 870              		.cfi_restore 5
 871              	.LCFI71:
 872              		.cfi_def_cfa 4, 4
 873 0412 C3       		ret
 874              		.cfi_endproc
 875              	.LFE23:
 878              	playWithDoubles:
 879              	.LFB24:
 176:HelloCojac.c  **** 
 177:HelloCojac.c  **** static double playWithDoubles(double a) {
 880              		.loc 1 177 0
 881              		.cfi_startproc
 882 0413 55       		pushl	%ebp
 883              	.LCFI72:
 884              		.cfi_def_cfa_offset 8
 885 0414 89E5     		movl	%esp, %ebp
 886              		.cfi_offset 5, -8
 887              	.LCFI73:
 888              		.cfi_def_cfa_register 5
 889 0416 83EC28   		subl	$40, %esp
 890 0419 8B4508   		movl	8(%ebp), %eax
 891 041c 8945E8   		movl	%eax, -24(%ebp)
 892 041f 8B450C   		movl	12(%ebp), %eax
 893 0422 8945EC   		movl	%eax, -20(%ebp)
 178:HelloCojac.c  ****   double res=a; //+(glob-0x7774);
 894              		.loc 1 178 0
 895 0425 DD45E8   		fldl	-24(%ebp)
 896 0428 DD5DF0   		fstpl	-16(%ebp)
 179:HelloCojac.c  ****   int i=0;
 897              		.loc 1 179 0
 898 042b C745FC00 		movl	$0, -4(%ebp)
 898      000000
 180:HelloCojac.c  ****   for (i=0; i<4; i++) {
 899              		.loc 1 180 0
 900 0432 C745FC00 		movl	$0, -4(%ebp)
 900      000000
 901 0439 EB1C     		jmp	.L26
 902              	.L27:
 181:HelloCojac.c  ****     res = addDouble(res, a*a);
 903              		.loc 1 181 0 discriminator 2
 904 043b DD45E8   		fldl	-24(%ebp)
 905 043e DC4DE8   		fmull	-24(%ebp)
 906 0441 DD5C2408 		fstpl	8(%esp)
 907 0445 DD45F0   		fldl	-16(%ebp)
 908 0448 DD1C24   		fstpl	(%esp)
 909 044b E89DFFFF 		call	addDouble
 909      FF
 910 0450 DD5DF0   		fstpl	-16(%ebp)
 180:HelloCojac.c  ****   for (i=0; i<4; i++) {
 911              		.loc 1 180 0 discriminator 2
 912 0453 8345FC01 		addl	$1, -4(%ebp)
 913              	.L26:
 180:HelloCojac.c  ****   for (i=0; i<4; i++) {
 914              		.loc 1 180 0 is_stmt 0 discriminator 1
 915 0457 837DFC03 		cmpl	$3, -4(%ebp)
 916 045b 7EDE     		jle	.L27
 182:HelloCojac.c  ****   }
 183:HelloCojac.c  ****   return res;
 917              		.loc 1 183 0 is_stmt 1
 918 045d DD45F0   		fldl	-16(%ebp)
 184:HelloCojac.c  **** }
 919              		.loc 1 184 0
 920 0460 C9       		leave
 921              		.cfi_restore 5
 922              	.LCFI74:
 923              		.cfi_def_cfa 4, 4
 924 0461 C3       		ret
 925              		.cfi_endproc
 926              	.LFE24:
 929              	playWithFloats:
 930              	.LFB25:
 185:HelloCojac.c  **** static double playWithFloats(float a) {
 931              		.loc 1 185 0
 932              		.cfi_startproc
 933 0462 55       		pushl	%ebp
 934              	.LCFI75:
 935              		.cfi_def_cfa_offset 8
 936 0463 89E5     		movl	%esp, %ebp
 937              		.cfi_offset 5, -8
 938              	.LCFI76:
 939              		.cfi_def_cfa_register 5
 940 0465 83EC10   		subl	$16, %esp
 186:HelloCojac.c  ****   float res=a; //+(glob-0x7773);
 941              		.loc 1 186 0
 942 0468 8B4508   		movl	8(%ebp), %eax
 943 046b 8945FC   		movl	%eax, -4(%ebp)
 187:HelloCojac.c  ****   int i=0;
 944              		.loc 1 187 0
 945 046e C745F800 		movl	$0, -8(%ebp)
 945      000000
 188:HelloCojac.c  ****   for (i=0; i<4; i++) {
 946              		.loc 1 188 0
 947 0475 C745F800 		movl	$0, -8(%ebp)
 947      000000
 948 047c EB12     		jmp	.L29
 949              	.L30:
 189:HelloCojac.c  ****     res = res + a*a;
 950              		.loc 1 189 0 discriminator 2
 951 047e D94508   		flds	8(%ebp)
 952 0481 D84D08   		fmuls	8(%ebp)
 953 0484 D945FC   		flds	-4(%ebp)
 954 0487 DEC1     		faddp	%st, %st(1)
 955 0489 D95DFC   		fstps	-4(%ebp)
 188:HelloCojac.c  ****   for (i=0; i<4; i++) {
 956              		.loc 1 188 0 discriminator 2
 957 048c 8345F801 		addl	$1, -8(%ebp)
 958              	.L29:
 188:HelloCojac.c  ****   for (i=0; i<4; i++) {
 959              		.loc 1 188 0 is_stmt 0 discriminator 1
 960 0490 837DF803 		cmpl	$3, -8(%ebp)
 961 0494 7EE8     		jle	.L30
 190:HelloCojac.c  ****   }
 191:HelloCojac.c  ****   return res;
 962              		.loc 1 191 0 is_stmt 1
 963 0496 D945FC   		flds	-4(%ebp)
 192:HelloCojac.c  **** }
 964              		.loc 1 192 0
 965 0499 C9       		leave
 966              		.cfi_restore 5
 967              	.LCFI77:
 968              		.cfi_def_cfa 4, 4
 969 049a C3       		ret
 970              		.cfi_endproc
 971              	.LFE25:
 974              	playWithLongs:
 975              	.LFB26:
 193:HelloCojac.c  **** 
 194:HelloCojac.c  **** static int64_t playWithLongs(int64_t a) {
 976              		.loc 1 194 0
 977              		.cfi_startproc
 978 049b 55       		pushl	%ebp
 979              	.LCFI78:
 980              		.cfi_def_cfa_offset 8
 981 049c 89E5     		movl	%esp, %ebp
 982              		.cfi_offset 5, -8
 983              	.LCFI79:
 984              		.cfi_def_cfa_register 5
 985 049e 83EC18   		subl	$24, %esp
 986 04a1 8B4508   		movl	8(%ebp), %eax
 987 04a4 8945E8   		movl	%eax, -24(%ebp)
 988 04a7 8B450C   		movl	12(%ebp), %eax
 989 04aa 8945EC   		movl	%eax, -20(%ebp)
 195:HelloCojac.c  ****   int64_t res=a+(glob-0x7773);
 990              		.loc 1 195 0
 991 04ad A1000000 		movl	glob, %eax
 991      00
 992 04b2 2D737700 		subl	$30579, %eax
 992      00
 993 04b7 89C2     		movl	%eax, %edx
 994 04b9 C1FA1F   		sarl	$31, %edx
 995 04bc 0345E8   		addl	-24(%ebp), %eax
 996 04bf 1355EC   		adcl	-20(%ebp), %edx
 997 04c2 8945F0   		movl	%eax, -16(%ebp)
 998 04c5 8955F4   		movl	%edx, -12(%ebp)
 196:HelloCojac.c  ****   int i=0;
 999              		.loc 1 196 0
 1000 04c8 C745FC00 		movl	$0, -4(%ebp)
 1000      000000
 197:HelloCojac.c  ****   for (i=0; i<100; i++) {
 1001              		.loc 1 197 0
 1002 04cf C745FC00 		movl	$0, -4(%ebp)
 1002      000000
 1003 04d6 EB26     		jmp	.L32
 1004              	.L33:
 198:HelloCojac.c  ****     res = res + a*a;
 1005              		.loc 1 198 0 discriminator 2
 1006 04d8 8B45EC   		movl	-20(%ebp), %eax
 1007 04db 89C1     		movl	%eax, %ecx
 1008 04dd 0FAF4DE8 		imull	-24(%ebp), %ecx
 1009 04e1 8B45EC   		movl	-20(%ebp), %eax
 1010 04e4 0FAF45E8 		imull	-24(%ebp), %eax
 1011 04e8 01C1     		addl	%eax, %ecx
 1012 04ea 8B45E8   		movl	-24(%ebp), %eax
 1013 04ed F765E8   		mull	-24(%ebp)
 1014 04f0 01D1     		addl	%edx, %ecx
 1015 04f2 89CA     		movl	%ecx, %edx
 1016 04f4 0145F0   		addl	%eax, -16(%ebp)
 1017 04f7 1155F4   		adcl	%edx, -12(%ebp)
 197:HelloCojac.c  ****   for (i=0; i<100; i++) {
 1018              		.loc 1 197 0 discriminator 2
 1019 04fa 8345FC01 		addl	$1, -4(%ebp)
 1020              	.L32:
 197:HelloCojac.c  ****   for (i=0; i<100; i++) {
 1021              		.loc 1 197 0 is_stmt 0 discriminator 1
 1022 04fe 837DFC63 		cmpl	$99, -4(%ebp)
 1023 0502 7ED4     		jle	.L33
 199:HelloCojac.c  ****   }
 200:HelloCojac.c  ****   return res;
 1024              		.loc 1 200 0 is_stmt 1
 1025 0504 8B45F0   		movl	-16(%ebp), %eax
 1026 0507 8B55F4   		movl	-12(%ebp), %edx
 201:HelloCojac.c  **** }
 1027              		.loc 1 201 0
 1028 050a C9       		leave
 1029              		.cfi_restore 5
 1030              	.LCFI80:
 1031              		.cfi_def_cfa 4, 4
 1032 050b C3       		ret
 1033              		.cfi_endproc
 1034              	.LFE26:
 1036              		.section	.rodata
 1037 0029 000000   		.align 4
 1038              	.LC4:
 1039 002c 4572726F 		.string	"Error: %lld , should be %lld  %d / %d\n"
 1039      723A2025 
 1039      6C6C6420 
 1039      2C207368 
 1039      6F756C64 
 1040              		.text
 1042              	testLongFromUints:
 1043              	.LFB27:
 202:HelloCojac.c  **** 
 203:HelloCojac.c  **** //*--------------------------------------------------------------------*/
 204:HelloCojac.c  **** //------------------------------------------------
 205:HelloCojac.c  **** static void testLongFromUints() {
 1044              		.loc 1 205 0
 1045              		.cfi_startproc
 1046 050c 55       		pushl	%ebp
 1047              	.LCFI81:
 1048              		.cfi_def_cfa_offset 8
 1049 050d 89E5     		movl	%esp, %ebp
 1050              		.cfi_offset 5, -8
 1051              	.LCFI82:
 1052              		.cfi_def_cfa_register 5
 1053 050f 83EC48   		subl	$72, %esp
 206:HelloCojac.c  ****   uint64_t l =432412345678L;
 1054              		.loc 1 206 0
 1055 0512 C745E84E 		movl	$-1379351218, -24(%ebp)
 1055      C5C8AD
 1056 0519 C745EC64 		movl	$100, -20(%ebp)
 1056      000000
 207:HelloCojac.c  ****   uint32_t ua, ub;
 208:HelloCojac.c  ****   longToTwoUInts(l, &ua, &ub);
 1057              		.loc 1 208 0
 1058 0520 8D45F0   		leal	-16(%ebp), %eax
 1059 0523 8944240C 		movl	%eax, 12(%esp)
 1060 0527 8D45F4   		leal	-12(%ebp), %eax
 1061 052a 89442408 		movl	%eax, 8(%esp)
 1062 052e 8B45E8   		movl	-24(%ebp), %eax
 1063 0531 8B55EC   		movl	-20(%ebp), %edx
 1064 0534 890424   		movl	%eax, (%esp)
 1065 0537 89542404 		movl	%edx, 4(%esp)
 1066 053b E8D1FBFF 		call	longToTwoUInts
 1066      FF
 209:HelloCojac.c  ****   uint64_t r1=longFromTwoUInts(ua,ub);
 1067              		.loc 1 209 0
 1068 0540 8B55F0   		movl	-16(%ebp), %edx
 1069 0543 8B45F4   		movl	-12(%ebp), %eax
 1070 0546 89542404 		movl	%edx, 4(%esp)
 1071 054a 890424   		movl	%eax, (%esp)
 1072 054d E82AFBFF 		call	longFromTwoUInts
 1072      FF
 1073 0552 8945E0   		movl	%eax, -32(%ebp)
 1074 0555 8955E4   		movl	%edx, -28(%ebp)
 210:HelloCojac.c  ****   if (r1!=l)
 1075              		.loc 1 210 0
 1076 0558 8B45E0   		movl	-32(%ebp), %eax
 1077 055b 8B55E4   		movl	-28(%ebp), %edx
 1078 055e 89D1     		movl	%edx, %ecx
 1079 0560 334DEC   		xorl	-20(%ebp), %ecx
 1080 0563 3345E8   		xorl	-24(%ebp), %eax
 1081 0566 09C8     		orl	%ecx, %eax
 1082 0568 85C0     		testl	%eax, %eax
 1083 056a 7437     		je	.L34
 211:HelloCojac.c  ****     printf("Error: %"PRId64 " , should be %"PRId64 "  %d / %d\n", r1,l, ua, ub);
 1084              		.loc 1 211 0
 1085 056c 8B55F0   		movl	-16(%ebp), %edx
 1086 056f 8B45F4   		movl	-12(%ebp), %eax
 1087 0572 B92C0000 		movl	$.LC4, %ecx
 1087      00
 1088 0577 89542418 		movl	%edx, 24(%esp)
 1089 057b 89442414 		movl	%eax, 20(%esp)
 1090 057f 8B45E8   		movl	-24(%ebp), %eax
 1091 0582 8B55EC   		movl	-20(%ebp), %edx
 1092 0585 8944240C 		movl	%eax, 12(%esp)
 1093 0589 89542410 		movl	%edx, 16(%esp)
 1094 058d 8B45E0   		movl	-32(%ebp), %eax
 1095 0590 8B55E4   		movl	-28(%ebp), %edx
 1096 0593 89442404 		movl	%eax, 4(%esp)
 1097 0597 89542408 		movl	%edx, 8(%esp)
 1098 059b 890C24   		movl	%ecx, (%esp)
 1099 059e E8FCFFFF 		call	printf
 1099      FF
 1100              	.L34:
 212:HelloCojac.c  **** }
 1101              		.loc 1 212 0
 1102 05a3 C9       		leave
 1103              		.cfi_restore 5
 1104              	.LCFI83:
 1105              		.cfi_def_cfa 4, 4
 1106 05a4 C3       		ret
 1107              		.cfi_endproc
 1108              	.LFE27:
 1110              		.section	.rodata
 1111 0053 00       		.align 4
 1112              	.LC6:
 1113 0054 4572726F 		.string	"Error1: %f , should be %f  %d / %d\n"
 1113      72313A20 
 1113      2566202C 
 1113      2073686F 
 1113      756C6420 
 1114              		.align 4
 1115              	.LC7:
 1116 0078 4572726F 		.string	"Error2: %f , should be %f  %d / %d\n"
 1116      72323A20 
 1116      2566202C 
 1116      2073686F 
 1116      756C6420 
 1117              	.LC8:
 1118 009c 4572726F 		.string	"Error3:"
 1118      72333A00 
 1119              	.LC9:
 1120 00a4 4572726F 		.string	"Error4:"
 1120      72343A00 
 1121              		.text
 1123              	testDoubleFromUint:
 1124              	.LFB28:
 213:HelloCojac.c  **** static void testDoubleFromUint() {
 1125              		.loc 1 213 0
 1126              		.cfi_startproc
 1127 05a5 55       		pushl	%ebp
 1128              	.LCFI84:
 1129              		.cfi_def_cfa_offset 8
 1130 05a6 89E5     		movl	%esp, %ebp
 1131              		.cfi_offset 5, -8
 1132              	.LCFI85:
 1133              		.cfi_def_cfa_register 5
 1134 05a8 83EC58   		subl	$88, %esp
 214:HelloCojac.c  ****   double d = 3.14E51; // d2=-845.009;
 1135              		.loc 1 214 0
 1136 05ab DD05E000 		fldl	.LC5
 1136      0000
 1137 05b1 DD5DE0   		fstpl	-32(%ebp)
 215:HelloCojac.c  ****   uint32_t ua, ub;
 216:HelloCojac.c  ****   int32_t a, b;
 217:HelloCojac.c  ****   doubleToTwoInts(d, &a, &b);
 1138              		.loc 1 217 0
 1139 05b4 8D45E8   		leal	-24(%ebp), %eax
 1140 05b7 8944240C 		movl	%eax, 12(%esp)
 1141 05bb 8D45EC   		leal	-20(%ebp), %eax
 1142 05be 89442408 		movl	%eax, 8(%esp)
 1143 05c2 DD45E0   		fldl	-32(%ebp)
 1144 05c5 DD1C24   		fstpl	(%esp)
 1145 05c8 E891FCFF 		call	doubleToTwoInts
 1145      FF
 218:HelloCojac.c  ****   doubleToTwoUInts(d, &ua, &ub);
 1146              		.loc 1 218 0
 1147 05cd 8D45F0   		leal	-16(%ebp), %eax
 1148 05d0 8944240C 		movl	%eax, 12(%esp)
 1149 05d4 8D45F4   		leal	-12(%ebp), %eax
 1150 05d7 89442408 		movl	%eax, 8(%esp)
 1151 05db DD45E0   		fldl	-32(%ebp)
 1152 05de DD1C24   		fstpl	(%esp)
 1153 05e1 E83FFCFF 		call	doubleToTwoUInts
 1153      FF
 219:HelloCojac.c  ****   double r1=doubleFromTwoInts(a,b);
 1154              		.loc 1 219 0
 1155 05e6 8B55E8   		movl	-24(%ebp), %edx
 1156 05e9 8B45EC   		movl	-20(%ebp), %eax
 1157 05ec 89542404 		movl	%edx, 4(%esp)
 1158 05f0 890424   		movl	%eax, (%esp)
 1159 05f3 E8FCFBFF 		call	doubleFromTwoInts
 1159      FF
 1160 05f8 DD5DD8   		fstpl	-40(%ebp)
 220:HelloCojac.c  ****   double r2=doubleFromTwoUInts(ua, ub);
 1161              		.loc 1 220 0
 1162 05fb 8B55F0   		movl	-16(%ebp), %edx
 1163 05fe 8B45F4   		movl	-12(%ebp), %eax
 1164 0601 89542404 		movl	%edx, 4(%esp)
 1165 0605 890424   		movl	%eax, (%esp)
 1166 0608 E8B5FBFF 		call	doubleFromTwoUInts
 1166      FF
 1167 060d DD5DD0   		fstpl	-48(%ebp)
 221:HelloCojac.c  ****   if (r1!=d)
 1168              		.loc 1 221 0
 1169 0610 DD45D8   		fldl	-40(%ebp)
 1170 0613 DD45E0   		fldl	-32(%ebp)
 1171 0616 DFE9     		fucomip	%st(1), %st
 1172 0618 DDD8     		fstp	%st(0)
 1173 061a 7A0C     		jp	.L43
 1174 061c DD45D8   		fldl	-40(%ebp)
 1175 061f DD45E0   		fldl	-32(%ebp)
 1176 0622 DFE9     		fucomip	%st(1), %st
 1177 0624 DDD8     		fstp	%st(0)
 1178 0626 7429     		je	.L37
 1179              	.L43:
 222:HelloCojac.c  ****     printf("Error1: %f , should be %f  %d / %d\n", r1, d, a, b);
 1180              		.loc 1 222 0
 1181 0628 8B4DE8   		movl	-24(%ebp), %ecx
 1182 062b 8B55EC   		movl	-20(%ebp), %edx
 1183 062e B8540000 		movl	$.LC6, %eax
 1183      00
 1184 0633 894C2418 		movl	%ecx, 24(%esp)
 1185 0637 89542414 		movl	%edx, 20(%esp)
 1186 063b DD45E0   		fldl	-32(%ebp)
 1187 063e DD5C240C 		fstpl	12(%esp)
 1188 0642 DD45D8   		fldl	-40(%ebp)
 1189 0645 DD5C2404 		fstpl	4(%esp)
 1190 0649 890424   		movl	%eax, (%esp)
 1191 064c E8FCFFFF 		call	printf
 1191      FF
 1192              	.L37:
 223:HelloCojac.c  ****   if (r2!=d)
 1193              		.loc 1 223 0
 1194 0651 DD45D0   		fldl	-48(%ebp)
 1195 0654 DD45E0   		fldl	-32(%ebp)
 1196 0657 DFE9     		fucomip	%st(1), %st
 1197 0659 DDD8     		fstp	%st(0)
 1198 065b 7A0C     		jp	.L44
 1199 065d DD45D0   		fldl	-48(%ebp)
 1200 0660 DD45E0   		fldl	-32(%ebp)
 1201 0663 DFE9     		fucomip	%st(1), %st
 1202 0665 DDD8     		fstp	%st(0)
 1203 0667 7429     		je	.L39
 1204              	.L44:
 224:HelloCojac.c  ****     printf("Error2: %f , should be %f  %d / %d\n", r2, d, ua, ub);
 1205              		.loc 1 224 0
 1206 0669 8B4DF0   		movl	-16(%ebp), %ecx
 1207 066c 8B55F4   		movl	-12(%ebp), %edx
 1208 066f B8780000 		movl	$.LC7, %eax
 1208      00
 1209 0674 894C2418 		movl	%ecx, 24(%esp)
 1210 0678 89542414 		movl	%edx, 20(%esp)
 1211 067c DD45E0   		fldl	-32(%ebp)
 1212 067f DD5C240C 		fstpl	12(%esp)
 1213 0683 DD45D0   		fldl	-48(%ebp)
 1214 0686 DD5C2404 		fstpl	4(%esp)
 1215 068a 890424   		movl	%eax, (%esp)
 1216 068d E8FCFFFF 		call	printf
 1216      FF
 1217              	.L39:
 225:HelloCojac.c  **** 
 226:HelloCojac.c  ****   a=-8730;
 1218              		.loc 1 226 0
 1219 0692 C745ECE6 		movl	$-8730, -20(%ebp)
 1219      DDFFFF
 227:HelloCojac.c  ****   ub = a;
 1220              		.loc 1 227 0
 1221 0699 8B45EC   		movl	-20(%ebp), %eax
 1222 069c 8945F0   		movl	%eax, -16(%ebp)
 228:HelloCojac.c  ****   if (intFromUInt(uintFromInt(a) != a))
 1223              		.loc 1 228 0
 1224 069f 8B45EC   		movl	-20(%ebp), %eax
 1225 06a2 890424   		movl	%eax, (%esp)
 1226 06a5 E899F9FF 		call	uintFromInt
 1226      FF
 1227 06aa 8B55EC   		movl	-20(%ebp), %edx
 1228 06ad 39D0     		cmpl	%edx, %eax
 1229 06af 0F95C0   		setne	%al
 1230 06b2 0FB6C0   		movzbl	%al, %eax
 1231 06b5 890424   		movl	%eax, (%esp)
 1232 06b8 E897F9FF 		call	intFromUInt
 1232      FF
 1233 06bd 85C0     		testl	%eax, %eax
 1234 06bf 740C     		je	.L41
 229:HelloCojac.c  ****     printf("Error3:\n");
 1235              		.loc 1 229 0
 1236 06c1 C704249C 		movl	$.LC8, (%esp)
 1236      000000
 1237 06c8 E8FCFFFF 		call	puts
 1237      FF
 1238              	.L41:
 230:HelloCojac.c  ****   if (uintFromInt(intFromUInt(ub) != ub))
 1239              		.loc 1 230 0
 1240 06cd 8B45F0   		movl	-16(%ebp), %eax
 1241 06d0 890424   		movl	%eax, (%esp)
 1242 06d3 E87CF9FF 		call	intFromUInt
 1242      FF
 1243 06d8 89C2     		movl	%eax, %edx
 1244 06da 8B45F0   		movl	-16(%ebp), %eax
 1245 06dd 39C2     		cmpl	%eax, %edx
 1246 06df 0F95C0   		setne	%al
 1247 06e2 0FB6C0   		movzbl	%al, %eax
 1248 06e5 890424   		movl	%eax, (%esp)
 1249 06e8 E856F9FF 		call	uintFromInt
 1249      FF
 1250 06ed 85C0     		testl	%eax, %eax
 1251 06ef 740C     		je	.L36
 231:HelloCojac.c  ****     printf("Error4:\n");
 1252              		.loc 1 231 0
 1253 06f1 C70424A4 		movl	$.LC9, (%esp)
 1253      000000
 1254 06f8 E8FCFFFF 		call	puts
 1254      FF
 1255              	.L36:
 232:HelloCojac.c  **** 
 233:HelloCojac.c  **** }
 1256              		.loc 1 233 0
 1257 06fd C9       		leave
 1258              		.cfi_restore 5
 1259              	.LCFI86:
 1260              		.cfi_def_cfa 4, 4
 1261 06fe C3       		ret
 1262              		.cfi_endproc
 1263              	.LFE28:
 1265              		.section	.rodata
 1266              	.LC10:
 1267 00ac 72657332 		.string	"res2= %d"
 1267      3D202564 
 1267      00
 1268              	.LC14:
 1269 00b5 666C6F61 		.string	"float: %f \n"
 1269      743A2025 
 1269      66200A00 
 1270              	.LC16:
 1271 00c1 646F7562 		.string	"double: %f \n"
 1271      6C653A20 
 1271      2566200A 
 1271      00
 1272              	.LC18:
 1273 00ce 6C6F6E67 		.string	"long: %lld \n"
 1273      3A20256C 
 1273      6C64200A 
 1273      00
 1274              		.text
 1275              	.globl main1
 1277              	main1:
 1278              	.LFB29:
 234:HelloCojac.c  **** //------------------------------------------------
 235:HelloCojac.c  **** int main1(void) {
 1279              		.loc 1 235 0
 1280              		.cfi_startproc
 1281 06ff 55       		pushl	%ebp
 1282              	.LCFI87:
 1283              		.cfi_def_cfa_offset 8
 1284 0700 89E5     		movl	%esp, %ebp
 1285              		.cfi_offset 5, -8
 1286              	.LCFI88:
 1287              		.cfi_def_cfa_register 5
 1288 0702 83EC48   		subl	$72, %esp
 236:HelloCojac.c  ****   //fprintf(stderr, "achachachach\n");
 237:HelloCojac.c  ****   signed int res=119*119*119;
 1289              		.loc 1 237 0
 1290 0705 C745F0A7 		movl	$1685159, -16(%ebp)
 1290      B61900
 238:HelloCojac.c  ****   int i=0;
 1291              		.loc 1 238 0
 1292 070c C745EC00 		movl	$0, -20(%ebp)
 1292      000000
 239:HelloCojac.c  ****   char b=5;
 1293              		.loc 1 239 0
 1294 0713 C645F705 		movb	$5, -9(%ebp)
 240:HelloCojac.c  **** 
 241:HelloCojac.c  ****   for(i=0; i<5; i++) {
 1295              		.loc 1 241 0
 1296 0717 C745EC00 		movl	$0, -20(%ebp)
 1296      000000
 1297 071e EB15     		jmp	.L46
 1298              	.L47:
 242:HelloCojac.c  ****     res = res*119;
 1299              		.loc 1 242 0 discriminator 2
 1300 0720 8B45F0   		movl	-16(%ebp), %eax
 1301 0723 6BC077   		imull	$119, %eax, %eax
 1302 0726 8945F0   		movl	%eax, -16(%ebp)
 243:HelloCojac.c  ****     res = res + res +res;
 1303              		.loc 1 243 0 discriminator 2
 1304 0729 8B45F0   		movl	-16(%ebp), %eax
 1305 072c 01C0     		addl	%eax, %eax
 1306 072e 0145F0   		addl	%eax, -16(%ebp)
 241:HelloCojac.c  ****   for(i=0; i<5; i++) {
 1307              		.loc 1 241 0 discriminator 2
 1308 0731 8345EC01 		addl	$1, -20(%ebp)
 1309              	.L46:
 241:HelloCojac.c  ****   for(i=0; i<5; i++) {
 1310              		.loc 1 241 0 is_stmt 0 discriminator 1
 1311 0735 837DEC04 		cmpl	$4, -20(%ebp)
 1312 0739 7EE5     		jle	.L47
 244:HelloCojac.c  ****     //fprintf(stderr, "res=%d\n", res);
 245:HelloCojac.c  ****     //fflush(stderr);
 246:HelloCojac.c  ****   }
 247:HelloCojac.c  ****   res = b*res;
 1313              		.loc 1 247 0 is_stmt 1
 1314 073b 0FBE45F7 		movsbl	-9(%ebp), %eax
 1315 073f 8B55F0   		movl	-16(%ebp), %edx
 1316 0742 0FAFC2   		imull	%edx, %eax
 1317 0745 8945F0   		movl	%eax, -16(%ebp)
 248:HelloCojac.c  ****   signed int inc = INT_MAX/3;
 1318              		.loc 1 248 0
 1319 0748 C745E8AA 		movl	$715827882, -24(%ebp)
 1319      AAAA2A
 249:HelloCojac.c  ****   for(i=0; i<20; i++)
 1320              		.loc 1 249 0
 1321 074f C745EC00 		movl	$0, -20(%ebp)
 1321      000000
 1322 0756 EB0A     		jmp	.L48
 1323              	.L49:
 250:HelloCojac.c  ****     res = res + inc;
 1324              		.loc 1 250 0 discriminator 2
 1325 0758 8B45E8   		movl	-24(%ebp), %eax
 1326 075b 0145F0   		addl	%eax, -16(%ebp)
 249:HelloCojac.c  ****   for(i=0; i<20; i++)
 1327              		.loc 1 249 0 discriminator 2
 1328 075e 8345EC01 		addl	$1, -20(%ebp)
 1329              	.L48:
 249:HelloCojac.c  ****   for(i=0; i<20; i++)
 1330              		.loc 1 249 0 is_stmt 0 discriminator 1
 1331 0762 837DEC13 		cmpl	$19, -20(%ebp)
 1332 0766 7EF0     		jle	.L49
 251:HelloCojac.c  **** 
 252:HelloCojac.c  ****   res = add16(SHRT_MAX-8, 145);
 1333              		.loc 1 252 0 is_stmt 1
 1334 0768 C7442404 		movl	$145, 4(%esp)
 1334      91000000 
 1335 0770 C70424F7 		movl	$32759, (%esp)
 1335      7F0000
 1336 0777 E85DFBFF 		call	add16
 1336      FF
 1337 077c 98       		cwtl
 1338 077d 8945F0   		movl	%eax, -16(%ebp)
 253:HelloCojac.c  ****   signed short res2 = cast32to16(0x78787);
 1339              		.loc 1 253 0
 1340 0780 C7042487 		movl	$493447, (%esp)
 1340      870700
 1341 0787 E86EFBFF 		call	cast32to16
 1341      FF
 1342 078c 668945F4 		movw	%ax, -12(%ebp)
 254:HelloCojac.c  ****   printf("res2= %d", res2);
 1343              		.loc 1 254 0
 1344 0790 0FBF55F4 		movswl	-12(%ebp), %edx
 1345 0794 B8AC0000 		movl	$.LC10, %eax
 1345      00
 1346 0799 89542404 		movl	%edx, 4(%esp)
 1347 079d 890424   		movl	%eax, (%esp)
 1348 07a0 E8FCFFFF 		call	printf
 1348      FF
 255:HelloCojac.c  **** 
 256:HelloCojac.c  ****   int32_t ia=INT_MAX-4; int32_t ib=8; ib = add32(ia, ib);
 1349              		.loc 1 256 0
 1350 07a5 C745E4FB 		movl	$2147483643, -28(%ebp)
 1350      FFFF7F
 1351 07ac C745E008 		movl	$8, -32(%ebp)
 1351      000000
 1352 07b3 8B45E0   		movl	-32(%ebp), %eax
 1353 07b6 89442404 		movl	%eax, 4(%esp)
 1354 07ba 8B45E4   		movl	-28(%ebp), %eax
 1355 07bd 890424   		movl	%eax, (%esp)
 1356 07c0 E8F8FAFF 		call	add32
 1356      FF
 1357 07c5 8945E0   		movl	%eax, -32(%ebp)
 257:HelloCojac.c  ****   int64_t lla=LLONG_MAX-4; int64_t llb=8; llb = add64(lla, llb);
 1358              		.loc 1 257 0
 1359 07c8 C745D0FB 		movl	$-5, -48(%ebp)
 1359      FFFFFF
 1360 07cf C745D4FF 		movl	$2147483647, -44(%ebp)
 1360      FFFF7F
 1361 07d6 C745C808 		movl	$8, -56(%ebp)
 1361      000000
 1362 07dd C745CC00 		movl	$0, -52(%ebp)
 1362      000000
 1363 07e4 8B45C8   		movl	-56(%ebp), %eax
 1364 07e7 8B55CC   		movl	-52(%ebp), %edx
 1365 07ea 89442408 		movl	%eax, 8(%esp)
 1366 07ee 8954240C 		movl	%edx, 12(%esp)
 1367 07f2 8B45D0   		movl	-48(%ebp), %eax
 1368 07f5 8B55D4   		movl	-44(%ebp), %edx
 1369 07f8 890424   		movl	%eax, (%esp)
 1370 07fb 89542404 		movl	%edx, 4(%esp)
 1371 07ff E8FEFAFF 		call	add64
 1371      FF
 1372 0804 8945C8   		movl	%eax, -56(%ebp)
 1373 0807 8955CC   		movl	%edx, -52(%ebp)
 258:HelloCojac.c  ****   float fla=FLT_MAX; float flb=FLT_MAX; flb = addFloat(fla, flb);
 1374              		.loc 1 258 0
 1375 080a B8FFFF7F 		movl	$0x7f7fffff, %eax
 1375      7F
 1376 080f 8945DC   		movl	%eax, -36(%ebp)
 1377 0812 B8FFFF7F 		movl	$0x7f7fffff, %eax
 1377      7F
 1378 0817 8945D8   		movl	%eax, -40(%ebp)
 1379 081a 8B45D8   		movl	-40(%ebp), %eax
 1380 081d 89442404 		movl	%eax, 4(%esp)
 1381 0821 8B45DC   		movl	-36(%ebp), %eax
 1382 0824 890424   		movl	%eax, (%esp)
 1383 0827 E892FBFF 		call	addFloat
 1383      FF
 1384 082c D95DD8   		fstps	-40(%ebp)
 259:HelloCojac.c  **** 
 260:HelloCojac.c  ****   if(isnan(fla)) fla=0;
 1385              		.loc 1 260 0
 1386 082f 8B45DC   		movl	-36(%ebp), %eax
 1387 0832 890424   		movl	%eax, (%esp)
 1388 0835 E8FCFFFF 		call	__isnanf
 1388      FF
 1389 083a 85C0     		testl	%eax, %eax
 1390 083c 7408     		je	.L50
 1391              		.loc 1 260 0 is_stmt 0 discriminator 1
 1392 083e B8000000 		movl	$0x00000000, %eax
 1392      00
 1393 0843 8945DC   		movl	%eax, -36(%ebp)
 1394              	.L50:
 261:HelloCojac.c  **** 
 262:HelloCojac.c  ****   printf("float: %f \n", playWithFloats(2.0f));
 1395              		.loc 1 262 0 is_stmt 1
 1396 0846 B8000000 		movl	$0x40000000, %eax
 1396      40
 1397 084b 890424   		movl	%eax, (%esp)
 1398 084e E80FFCFF 		call	playWithFloats
 1398      FF
 1399 0853 B8B50000 		movl	$.LC14, %eax
 1399      00
 1400 0858 DD5C2404 		fstpl	4(%esp)
 1401 085c 890424   		movl	%eax, (%esp)
 1402 085f E8FCFFFF 		call	printf
 1402      FF
 263:HelloCojac.c  ****   printf("double: %f \n", playWithDoubles(2.0));
 1403              		.loc 1 263 0
 1404 0864 DD05E800 		fldl	.LC15
 1404      0000
 1405 086a DD1C24   		fstpl	(%esp)
 1406 086d E8A1FBFF 		call	playWithDoubles
 1406      FF
 1407 0872 B8C10000 		movl	$.LC16, %eax
 1407      00
 1408 0877 DD5C2404 		fstpl	4(%esp)
 1409 087b 890424   		movl	%eax, (%esp)
 1410 087e E8FCFFFF 		call	printf
 1410      FF
 264:HelloCojac.c  ****   printf("double: %f \n", playWithDoubles(3.16));
 1411              		.loc 1 264 0
 1412 0883 DD05F000 		fldl	.LC17
 1412      0000
 1413 0889 DD1C24   		fstpl	(%esp)
 1414 088c E882FBFF 		call	playWithDoubles
 1414      FF
 1415 0891 B8C10000 		movl	$.LC16, %eax
 1415      00
 1416 0896 DD5C2404 		fstpl	4(%esp)
 1417 089a 890424   		movl	%eax, (%esp)
 1418 089d E8FCFFFF 		call	printf
 1418      FF
 265:HelloCojac.c  ****   printf("long: %"PRId64 " \n", playWithLongs(2));
 1419              		.loc 1 265 0
 1420 08a2 C7042402 		movl	$2, (%esp)
 1420      000000
 1421 08a9 C7442404 		movl	$0, 4(%esp)
 1421      00000000 
 1422 08b1 E8E5FBFF 		call	playWithLongs
 1422      FF
 1423 08b6 B9CE0000 		movl	$.LC18, %ecx
 1423      00
 1424 08bb 89442404 		movl	%eax, 4(%esp)
 1425 08bf 89542408 		movl	%edx, 8(%esp)
 1426 08c3 890C24   		movl	%ecx, (%esp)
 1427 08c6 E8FCFFFF 		call	printf
 1427      FF
 266:HelloCojac.c  **** 
 267:HelloCojac.c  ****   return EXIT_SUCCESS;
 1428              		.loc 1 267 0
 1429 08cb B8000000 		movl	$0, %eax
 1429      00
 268:HelloCojac.c  **** }
 1430              		.loc 1 268 0
 1431 08d0 C9       		leave
 1432              		.cfi_restore 5
 1433              	.LCFI89:
 1434              		.cfi_def_cfa 4, 4
 1435 08d1 C3       		ret
 1436              		.cfi_endproc
 1437              	.LFE29:
 1440              	ulp:
 1441              	.LFB30:
 269:HelloCojac.c  **** 
 270:HelloCojac.c  **** //------------------------------------------------
 271:HelloCojac.c  **** static double ulp(double a) { //PRE: a is neither INF nor NaN
 1442              		.loc 1 271 0
 1443              		.cfi_startproc
 1444 08d2 55       		pushl	%ebp
 1445              	.LCFI90:
 1446              		.cfi_def_cfa_offset 8
 1447 08d3 89E5     		movl	%esp, %ebp
 1448              		.cfi_offset 5, -8
 1449              	.LCFI91:
 1450              		.cfi_def_cfa_register 5
 1451 08d5 83EC28   		subl	$40, %esp
 1452 08d8 8B4508   		movl	8(%ebp), %eax
 1453 08db 8945F0   		movl	%eax, -16(%ebp)
 1454 08de 8B450C   		movl	12(%ebp), %eax
 1455 08e1 8945F4   		movl	%eax, -12(%ebp)
 272:HelloCojac.c  ****   return fabs(nextafter(a,INFINITY)-a);
 1456              		.loc 1 272 0
 1457 08e4 DD05F800 		fldl	.LC19
 1457      0000
 1458 08ea DD5C2408 		fstpl	8(%esp)
 1459 08ee DD45F0   		fldl	-16(%ebp)
 1460 08f1 DD1C24   		fstpl	(%esp)
 1461 08f4 E8FCFFFF 		call	nextafter
 1461      FF
 1462 08f9 DC65F0   		fsubl	-16(%ebp)
 1463 08fc D9E1     		fabs
 273:HelloCojac.c  **** }
 1464              		.loc 1 273 0
 1465 08fe C9       		leave
 1466              		.cfi_restore 5
 1467              	.LCFI92:
 1468              		.cfi_def_cfa 4, 4
 1469 08ff C3       		ret
 1470              		.cfi_endproc
 1471              	.LFE30:
 1474              	ulpf:
 1475              	.LFB31:
 274:HelloCojac.c  **** static double ulpf(float a) { //PRE: a is neither INF nor NaN
 1476              		.loc 1 274 0
 1477              		.cfi_startproc
 1478 0900 55       		pushl	%ebp
 1479              	.LCFI93:
 1480              		.cfi_def_cfa_offset 8
 1481 0901 89E5     		movl	%esp, %ebp
 1482              		.cfi_offset 5, -8
 1483              	.LCFI94:
 1484              		.cfi_def_cfa_register 5
 1485 0903 83EC18   		subl	$24, %esp
 275:HelloCojac.c  ****   return fabsf(nextafterf(a,INFINITY)-a);
 1486              		.loc 1 275 0
 1487 0906 B8000080 		movl	$0x7f800000, %eax
 1487      7F
 1488 090b 89442404 		movl	%eax, 4(%esp)
 1489 090f 8B4508   		movl	8(%ebp), %eax
 1490 0912 890424   		movl	%eax, (%esp)
 1491 0915 E8FCFFFF 		call	nextafterf
 1491      FF
 1492 091a D86508   		fsubs	8(%ebp)
 1493 091d D9E1     		fabs
 276:HelloCojac.c  **** }
 1494              		.loc 1 276 0
 1495 091f C9       		leave
 1496              		.cfi_restore 5
 1497              	.LCFI95:
 1498              		.cfi_def_cfa 4, 4
 1499 0920 C3       		ret
 1500              		.cfi_endproc
 1501              	.LFE31:
 1504              	susp_comp_double:
 1505              	.LFB32:
 277:HelloCojac.c  **** //------------------------------------------------
 278:HelloCojac.c  **** 
 279:HelloCojac.c  **** static void susp_comp_double() {
 1506              		.loc 1 279 0
 1507              		.cfi_startproc
 1508 0921 55       		pushl	%ebp
 1509              	.LCFI96:
 1510              		.cfi_def_cfa_offset 8
 1511 0922 89E5     		movl	%esp, %ebp
 1512              		.cfi_offset 5, -8
 1513              	.LCFI97:
 1514              		.cfi_def_cfa_register 5
 1515 0924 83EC58   		subl	$88, %esp
 280:HelloCojac.c  ****   double large=1.2E45, small=2.3E-44, max=DBL_MAX, inf=INFINITY, nan=NAN, zero=0.0;
 1516              		.loc 1 280 0
 1517 0927 DD050001 		fldl	.LC21
 1517      0000
 1518 092d DD5DF0   		fstpl	-16(%ebp)
 1519 0930 DD050801 		fldl	.LC22
 1519      0000
 1520 0936 DD5DE8   		fstpl	-24(%ebp)
 1521 0939 DD051001 		fldl	.LC23
 1521      0000
 1522 093f DD5DE0   		fstpl	-32(%ebp)
 1523 0942 DD05F800 		fldl	.LC19
 1523      0000
 1524 0948 DD5DD8   		fstpl	-40(%ebp)
 1525 094b DD051801 		fldl	.LC24
 1525      0000
 1526 0951 DD5DD0   		fstpl	-48(%ebp)
 1527 0954 D9EE     		fldz
 1528 0956 DD5DC8   		fstpl	-56(%ebp)
 281:HelloCojac.c  ****   double d= 0.0;
 1529              		.loc 1 281 0
 1530 0959 D9EE     		fldz
 1531 095b DD5DC0   		fstpl	-64(%ebp)
 282:HelloCojac.c  ****   d=large+small;
 1532              		.loc 1 282 0
 1533 095e DD45F0   		fldl	-16(%ebp)
 1534 0961 DC45E8   		faddl	-24(%ebp)
 1535 0964 DD5DC0   		fstpl	-64(%ebp)
 283:HelloCojac.c  ****   d=max+max;
 1536              		.loc 1 283 0
 1537 0967 DD45E0   		fldl	-32(%ebp)
 1538 096a D8C0     		fadd	%st(0), %st
 1539 096c DD5DC0   		fstpl	-64(%ebp)
 284:HelloCojac.c  ****   d=large-small;
 1540              		.loc 1 284 0
 1541 096f DD45F0   		fldl	-16(%ebp)
 1542 0972 DC65E8   		fsubl	-24(%ebp)
 1543 0975 DD5DC0   		fstpl	-64(%ebp)
 285:HelloCojac.c  ****   d=inf/inf;
 1544              		.loc 1 285 0
 1545 0978 DD45D8   		fldl	-40(%ebp)
 1546 097b DC75D8   		fdivl	-40(%ebp)
 1547 097e DD5DC0   		fstpl	-64(%ebp)
 286:HelloCojac.c  ****   d=large/zero;
 1548              		.loc 1 286 0
 1549 0981 DD45F0   		fldl	-16(%ebp)
 1550 0984 DC75C8   		fdivl	-56(%ebp)
 1551 0987 DD5DC0   		fstpl	-64(%ebp)
 287:HelloCojac.c  ****   d=small/zero;
 1552              		.loc 1 287 0
 1553 098a DD45E8   		fldl	-24(%ebp)
 1554 098d DC75C8   		fdivl	-56(%ebp)
 1555 0990 DD5DC0   		fstpl	-64(%ebp)
 288:HelloCojac.c  ****   d=zero/zero;
 1556              		.loc 1 288 0
 1557 0993 DD45C8   		fldl	-56(%ebp)
 1558 0996 DC75C8   		fdivl	-56(%ebp)
 1559 0999 DD5DC0   		fstpl	-64(%ebp)
 289:HelloCojac.c  ****   d=large + (-large+ulp(large));
 1560              		.loc 1 289 0
 1561 099c DD45F0   		fldl	-16(%ebp)
 1562 099f DD1C24   		fstpl	(%esp)
 1563 09a2 E82BFFFF 		call	ulp
 1563      FF
 1564 09a7 DC65F0   		fsubl	-16(%ebp)
 1565 09aa DC45F0   		faddl	-16(%ebp)
 1566 09ad DD5DC0   		fstpl	-64(%ebp)
 290:HelloCojac.c  ****   d=large;
 1567              		.loc 1 290 0
 1568 09b0 DD45F0   		fldl	-16(%ebp)
 1569 09b3 DD5DC0   		fstpl	-64(%ebp)
 291:HelloCojac.c  ****   d=3.25; //printf("line %d: ulp(%f)=%f\n", __LINE__, d, ulp(d));
 1570              		.loc 1 291 0
 1571 09b6 DD052001 		fldl	.LC26
 1571      0000
 1572 09bc DD5DC0   		fstpl	-64(%ebp)
 292:HelloCojac.c  **** }
 1573              		.loc 1 292 0
 1574 09bf C9       		leave
 1575              		.cfi_restore 5
 1576              	.LCFI98:
 1577              		.cfi_def_cfa 4, 4
 1578 09c0 C3       		ret
 1579              		.cfi_endproc
 1580              	.LFE32:
 1583              	susp_comp_float:
 1584              	.LFB33:
 293:HelloCojac.c  **** 
 294:HelloCojac.c  **** static void susp_comp_float() {
 1585              		.loc 1 294 0
 1586              		.cfi_startproc
 1587 09c1 55       		pushl	%ebp
 1588              	.LCFI99:
 1589              		.cfi_def_cfa_offset 8
 1590 09c2 89E5     		movl	%esp, %ebp
 1591              		.cfi_offset 5, -8
 1592              	.LCFI100:
 1593              		.cfi_def_cfa_register 5
 1594 09c4 83EC58   		subl	$88, %esp
 295:HelloCojac.c  ****   Float large=1.2E45, small=2.3E-44, max=FLT_MAX, inf=INFINITY, nan=NAN, zero=0.0;
 1595              		.loc 1 295 0
 1596 09c7 B8000080 		movl	$0x7f800000, %eax
 1596      7F
 1597 09cc 8945F4   		movl	%eax, -12(%ebp)
 1598 09cf B8100000 		movl	$0x00000010, %eax
 1598      00
 1599 09d4 8945F0   		movl	%eax, -16(%ebp)
 1600 09d7 B8FFFF7F 		movl	$0x7f7fffff, %eax
 1600      7F
 1601 09dc 8945EC   		movl	%eax, -20(%ebp)
 1602 09df B8000080 		movl	$0x7f800000, %eax
 1602      7F
 1603 09e4 8945E8   		movl	%eax, -24(%ebp)
 1604 09e7 B80000C0 		movl	$0x7fc00000, %eax
 1604      7F
 1605 09ec 8945E4   		movl	%eax, -28(%ebp)
 1606 09ef B8000000 		movl	$0x00000000, %eax
 1606      00
 1607 09f4 8945E0   		movl	%eax, -32(%ebp)
 296:HelloCojac.c  ****   Float d= 0.0;
 1608              		.loc 1 296 0
 1609 09f7 B8000000 		movl	$0x00000000, %eax
 1609      00
 1610 09fc 8945DC   		movl	%eax, -36(%ebp)
 297:HelloCojac.c  ****   d=large+small;
 1611              		.loc 1 297 0
 1612 09ff D945F4   		flds	-12(%ebp)
 1613 0a02 D845F0   		fadds	-16(%ebp)
 1614 0a05 D95DDC   		fstps	-36(%ebp)
 298:HelloCojac.c  ****   d=max+max;
 1615              		.loc 1 298 0
 1616 0a08 D945EC   		flds	-20(%ebp)
 1617 0a0b D8C0     		fadd	%st(0), %st
 1618 0a0d D95DDC   		fstps	-36(%ebp)
 299:HelloCojac.c  ****   d=large-small;
 1619              		.loc 1 299 0
 1620 0a10 D945F4   		flds	-12(%ebp)
 1621 0a13 D865F0   		fsubs	-16(%ebp)
 1622 0a16 D95DDC   		fstps	-36(%ebp)
 300:HelloCojac.c  ****   d=inf/inf;
 1623              		.loc 1 300 0
 1624 0a19 D945E8   		flds	-24(%ebp)
 1625 0a1c D875E8   		fdivs	-24(%ebp)
 1626 0a1f D95DDC   		fstps	-36(%ebp)
 301:HelloCojac.c  ****   d=large/zero;
 1627              		.loc 1 301 0
 1628 0a22 D945F4   		flds	-12(%ebp)
 1629 0a25 D875E0   		fdivs	-32(%ebp)
 1630 0a28 D95DDC   		fstps	-36(%ebp)
 302:HelloCojac.c  ****   d=small/zero;
 1631              		.loc 1 302 0
 1632 0a2b D945F0   		flds	-16(%ebp)
 1633 0a2e D875E0   		fdivs	-32(%ebp)
 1634 0a31 D95DDC   		fstps	-36(%ebp)
 303:HelloCojac.c  ****   d=zero/zero;
 1635              		.loc 1 303 0
 1636 0a34 D945E0   		flds	-32(%ebp)
 1637 0a37 D875E0   		fdivs	-32(%ebp)
 1638 0a3a D95DDC   		fstps	-36(%ebp)
 304:HelloCojac.c  ****   d=large + (-large+ulpf(large));
 1639              		.loc 1 304 0
 1640 0a3d D945F4   		flds	-12(%ebp)
 1641 0a40 DD5DC8   		fstpl	-56(%ebp)
 1642 0a43 D945F4   		flds	-12(%ebp)
 1643 0a46 D9E0     		fchs
 1644 0a48 DD5DC0   		fstpl	-64(%ebp)
 1645 0a4b 8B45F4   		movl	-12(%ebp), %eax
 1646 0a4e 890424   		movl	%eax, (%esp)
 1647 0a51 E8AAFEFF 		call	ulpf
 1647      FF
 1648 0a56 DC45C0   		faddl	-64(%ebp)
 1649 0a59 DC45C8   		faddl	-56(%ebp)
 1650 0a5c D95DDC   		fstps	-36(%ebp)
 305:HelloCojac.c  ****   d=large;
 1651              		.loc 1 305 0
 1652 0a5f 8B45F4   		movl	-12(%ebp), %eax
 1653 0a62 8945DC   		movl	%eax, -36(%ebp)
 306:HelloCojac.c  ****   d=3.25;
 1654              		.loc 1 306 0
 1655 0a65 B8000050 		movl	$0x40500000, %eax
 1655      40
 1656 0a6a 8945DC   		movl	%eax, -36(%ebp)
 307:HelloCojac.c  **** }
 1657              		.loc 1 307 0
 1658 0a6d C9       		leave
 1659              		.cfi_restore 5
 1660              	.LCFI101:
 1661              		.cfi_def_cfa 4, 4
 1662 0a6e C3       		ret
 1663              		.cfi_endproc
 1664              	.LFE33:
 1667              	susp_comp_int:
 1668              	.LFB34:
 308:HelloCojac.c  **** 
 309:HelloCojac.c  **** static void susp_comp_int() {
 1669              		.loc 1 309 0
 1670              		.cfi_startproc
 1671 0a6f 55       		pushl	%ebp
 1672              	.LCFI102:
 1673              		.cfi_def_cfa_offset 8
 1674 0a70 89E5     		movl	%esp, %ebp
 1675              		.cfi_offset 5, -8
 1676              	.LCFI103:
 1677              		.cfi_def_cfa_register 5
 1678 0a72 83EC10   		subl	$16, %esp
 310:HelloCojac.c  ****   int32_t imax=INT_MAX, imin=INT_MIN, minusOne=-1;
 1679              		.loc 1 310 0
 1680 0a75 C745FCFF 		movl	$2147483647, -4(%ebp)
 1680      FFFF7F
 1681 0a7c C745F800 		movl	$-2147483648, -8(%ebp)
 1681      000080
 1682 0a83 C745F4FF 		movl	$-1, -12(%ebp)
 1682      FFFFFF
 311:HelloCojac.c  ****   int i=0;
 1683              		.loc 1 311 0
 1684 0a8a C745F000 		movl	$0, -16(%ebp)
 1684      000000
 312:HelloCojac.c  ****   i=imax+imax; //i=add32(imax,imax);
 1685              		.loc 1 312 0
 1686 0a91 8B45FC   		movl	-4(%ebp), %eax
 1687 0a94 01C0     		addl	%eax, %eax
 1688 0a96 8945F0   		movl	%eax, -16(%ebp)
 313:HelloCojac.c  ****   i=imax*imax;
 1689              		.loc 1 313 0
 1690 0a99 8B45FC   		movl	-4(%ebp), %eax
 1691 0a9c 0FAF45FC 		imull	-4(%ebp), %eax
 1692 0aa0 8945F0   		movl	%eax, -16(%ebp)
 314:HelloCojac.c  ****   i=-imin;
 1693              		.loc 1 314 0
 1694 0aa3 8B45F8   		movl	-8(%ebp), %eax
 1695 0aa6 F7D8     		negl	%eax
 1696 0aa8 8945F0   		movl	%eax, -16(%ebp)
 315:HelloCojac.c  ****   i=imin*minusOne;
 1697              		.loc 1 315 0
 1698 0aab 8B45F8   		movl	-8(%ebp), %eax
 1699 0aae 0FAF45F4 		imull	-12(%ebp), %eax
 1700 0ab2 8945F0   		movl	%eax, -16(%ebp)
 316:HelloCojac.c  ****   // printf("ah %d / %d = %d \n", imin, minusOne, imin/minusOne);
 317:HelloCojac.c  ****   //i=imin / minusOne;
 318:HelloCojac.c  ****   i=imax-imin;
 1701              		.loc 1 318 0
 1702 0ab5 8B45F8   		movl	-8(%ebp), %eax
 1703 0ab8 8B55FC   		movl	-4(%ebp), %edx
 1704 0abb 89D1     		movl	%edx, %ecx
 1705 0abd 29C1     		subl	%eax, %ecx
 1706 0abf 89C8     		movl	%ecx, %eax
 1707 0ac1 8945F0   		movl	%eax, -16(%ebp)
 319:HelloCojac.c  **** }
 1708              		.loc 1 319 0
 1709 0ac4 C9       		leave
 1710              		.cfi_restore 5
 1711              	.LCFI104:
 1712              		.cfi_def_cfa 4, 4
 1713 0ac5 C3       		ret
 1714              		.cfi_endproc
 1715              	.LFE34:
 1718              	susp_comp_Long:
 1719              	.LFB35:
 320:HelloCojac.c  **** 
 321:HelloCojac.c  **** static void susp_comp_Long() {
 1720              		.loc 1 321 0
 1721              		.cfi_startproc
 1722 0ac6 55       		pushl	%ebp
 1723              	.LCFI105:
 1724              		.cfi_def_cfa_offset 8
 1725 0ac7 89E5     		movl	%esp, %ebp
 1726              		.cfi_offset 5, -8
 1727              	.LCFI106:
 1728              		.cfi_def_cfa_register 5
 1729 0ac9 53       		pushl	%ebx
 1730 0aca 83EC24   		subl	$36, %esp
 322:HelloCojac.c  ****   Long imax=LONG_MAX, imin=LONG_MIN, minusOne=-1L;
 1731              		.loc 1 322 0
 1732 0acd C745F0FF 		movl	$2147483647, -16(%ebp)
 1732      FFFF7F
 1733 0ad4 C745F400 		movl	$0, -12(%ebp)
 1733      000000
 1734 0adb C745E800 		movl	$-2147483648, -24(%ebp)
 1734      000080
 1735 0ae2 C745ECFF 		movl	$-1, -20(%ebp)
 1735      FFFFFF
 1736 0ae9 C745E0FF 		movl	$-1, -32(%ebp)
 1736      FFFFFF
 1737 0af0 C745E4FF 		movl	$-1, -28(%ebp)
 1737      FFFFFF
 323:HelloCojac.c  ****   Long i=0;
 1738              		.loc 1 323 0
 1739 0af7 C745D800 		movl	$0, -40(%ebp)
 1739      000000
 1740 0afe C745DC00 		movl	$0, -36(%ebp)
 1740      000000
 324:HelloCojac.c  ****   i=imax+imax;
 1741              		.loc 1 324 0
 1742 0b05 8B45F0   		movl	-16(%ebp), %eax
 1743 0b08 8B55F4   		movl	-12(%ebp), %edx
 1744 0b0b 01C0     		addl	%eax, %eax
 1745 0b0d 11D2     		adcl	%edx, %edx
 1746 0b0f 8945D8   		movl	%eax, -40(%ebp)
 1747 0b12 8955DC   		movl	%edx, -36(%ebp)
 325:HelloCojac.c  ****   i=imax*imax;
 1748              		.loc 1 325 0
 1749 0b15 8B45F4   		movl	-12(%ebp), %eax
 1750 0b18 89C1     		movl	%eax, %ecx
 1751 0b1a 0FAF4DF0 		imull	-16(%ebp), %ecx
 1752 0b1e 8B45F4   		movl	-12(%ebp), %eax
 1753 0b21 0FAF45F0 		imull	-16(%ebp), %eax
 1754 0b25 01C1     		addl	%eax, %ecx
 1755 0b27 8B45F0   		movl	-16(%ebp), %eax
 1756 0b2a F765F0   		mull	-16(%ebp)
 1757 0b2d 01D1     		addl	%edx, %ecx
 1758 0b2f 89CA     		movl	%ecx, %edx
 1759 0b31 8945D8   		movl	%eax, -40(%ebp)
 1760 0b34 8955DC   		movl	%edx, -36(%ebp)
 1761 0b37 8945D8   		movl	%eax, -40(%ebp)
 1762 0b3a 8955DC   		movl	%edx, -36(%ebp)
 326:HelloCojac.c  ****   i=-imin;
 1763              		.loc 1 326 0
 1764 0b3d 8B45E8   		movl	-24(%ebp), %eax
 1765 0b40 8B55EC   		movl	-20(%ebp), %edx
 1766 0b43 F7D8     		negl	%eax
 1767 0b45 83D200   		adcl	$0, %edx
 1768 0b48 F7DA     		negl	%edx
 1769 0b4a 8945D8   		movl	%eax, -40(%ebp)
 1770 0b4d 8955DC   		movl	%edx, -36(%ebp)
 327:HelloCojac.c  ****   i=imin*minusOne;
 1771              		.loc 1 327 0
 1772 0b50 8B45EC   		movl	-20(%ebp), %eax
 1773 0b53 89C1     		movl	%eax, %ecx
 1774 0b55 0FAF4DE0 		imull	-32(%ebp), %ecx
 1775 0b59 8B45E4   		movl	-28(%ebp), %eax
 1776 0b5c 0FAF45E8 		imull	-24(%ebp), %eax
 1777 0b60 01C1     		addl	%eax, %ecx
 1778 0b62 8B45E0   		movl	-32(%ebp), %eax
 1779 0b65 F765E8   		mull	-24(%ebp)
 1780 0b68 01D1     		addl	%edx, %ecx
 1781 0b6a 89CA     		movl	%ecx, %edx
 1782 0b6c 8945D8   		movl	%eax, -40(%ebp)
 1783 0b6f 8955DC   		movl	%edx, -36(%ebp)
 1784 0b72 8945D8   		movl	%eax, -40(%ebp)
 1785 0b75 8955DC   		movl	%edx, -36(%ebp)
 328:HelloCojac.c  ****   i=imax-imin;
 1786              		.loc 1 328 0
 1787 0b78 8B4DE8   		movl	-24(%ebp), %ecx
 1788 0b7b 8B5DEC   		movl	-20(%ebp), %ebx
 1789              		.cfi_offset 3, -12
 1790 0b7e 8B45F0   		movl	-16(%ebp), %eax
 1791 0b81 8B55F4   		movl	-12(%ebp), %edx
 1792 0b84 29C8     		subl	%ecx, %eax
 1793 0b86 19DA     		sbbl	%ebx, %edx
 1794 0b88 8945D8   		movl	%eax, -40(%ebp)
 1795 0b8b 8955DC   		movl	%edx, -36(%ebp)
 329:HelloCojac.c  **** }
 1796              		.loc 1 329 0
 1797 0b8e 83C424   		addl	$36, %esp
 1798 0b91 5B       		popl	%ebx
 1799              		.cfi_restore 3
 1800 0b92 5D       		popl	%ebp
 1801              		.cfi_restore 5
 1802              	.LCFI107:
 1803              		.cfi_def_cfa 4, 4
 1804 0b93 C3       		ret
 1805              		.cfi_endproc
 1806              	.LFE35:
 1809              	susp_comp_short:
 1810              	.LFB36:
 330:HelloCojac.c  **** 
 331:HelloCojac.c  **** static void susp_comp_short() {
 1811              		.loc 1 331 0
 1812              		.cfi_startproc
 1813 0b94 55       		pushl	%ebp
 1814              	.LCFI108:
 1815              		.cfi_def_cfa_offset 8
 1816 0b95 89E5     		movl	%esp, %ebp
 1817              		.cfi_offset 5, -8
 1818              	.LCFI109:
 1819              		.cfi_def_cfa_register 5
 1820 0b97 83EC18   		subl	$24, %esp
 332:HelloCojac.c  ****   // short
 333:HelloCojac.c  ****   int16_t smax=SHRT_MAX, smin=SHRT_MIN;
 1821              		.loc 1 333 0
 1822 0b9a 66C745FE 		movw	$32767, -2(%ebp)
 1822      FF7F
 1823 0ba0 66C745FC 		movw	$-32768, -4(%ebp)
 1823      0080
 334:HelloCojac.c  ****   int s=0;
 1824              		.loc 1 334 0
 1825 0ba6 C745F800 		movl	$0, -8(%ebp)
 1825      000000
 335:HelloCojac.c  ****   s=add16(smax, smax); //smax+smax; //i=add32(imax,imax);
 1826              		.loc 1 335 0
 1827 0bad 0FBF55FE 		movswl	-2(%ebp), %edx
 1828 0bb1 0FBF45FE 		movswl	-2(%ebp), %eax
 1829 0bb5 89542404 		movl	%edx, 4(%esp)
 1830 0bb9 890424   		movl	%eax, (%esp)
 1831 0bbc E818F7FF 		call	add16
 1831      FF
 1832 0bc1 98       		cwtl
 1833 0bc2 8945F8   		movl	%eax, -8(%ebp)
 336:HelloCojac.c  ****   s=smax*smax;
 1834              		.loc 1 336 0
 1835 0bc5 0FBF55FE 		movswl	-2(%ebp), %edx
 1836 0bc9 0FBF45FE 		movswl	-2(%ebp), %eax
 1837 0bcd 0FAFC2   		imull	%edx, %eax
 1838 0bd0 8945F8   		movl	%eax, -8(%ebp)
 337:HelloCojac.c  ****   s=smin / -1;
 1839              		.loc 1 337 0
 1840 0bd3 0FBF45FC 		movswl	-4(%ebp), %eax
 1841 0bd7 F7D8     		negl	%eax
 1842 0bd9 8945F8   		movl	%eax, -8(%ebp)
 338:HelloCojac.c  ****   s=smax-smin;
 1843              		.loc 1 338 0
 1844 0bdc 0FBF55FE 		movswl	-2(%ebp), %edx
 1845 0be0 0FBF45FC 		movswl	-4(%ebp), %eax
 1846 0be4 89D1     		movl	%edx, %ecx
 1847 0be6 29C1     		subl	%eax, %ecx
 1848 0be8 89C8     		movl	%ecx, %eax
 1849 0bea 8945F8   		movl	%eax, -8(%ebp)
 339:HelloCojac.c  **** }
 1850              		.loc 1 339 0
 1851 0bed C9       		leave
 1852              		.cfi_restore 5
 1853              	.LCFI110:
 1854              		.cfi_def_cfa 4, 4
 1855 0bee C3       		ret
 1856              		.cfi_endproc
 1857              	.LFE36:
 1860              	suspecious_computations:
 1861              	.LFB37:
 340:HelloCojac.c  **** 
 341:HelloCojac.c  **** static void suspecious_computations() {
 1862              		.loc 1 341 0
 1863              		.cfi_startproc
 1864 0bef 55       		pushl	%ebp
 1865              	.LCFI111:
 1866              		.cfi_def_cfa_offset 8
 1867 0bf0 89E5     		movl	%esp, %ebp
 1868              		.cfi_offset 5, -8
 1869              	.LCFI112:
 1870              		.cfi_def_cfa_register 5
 1871 0bf2 83EC08   		subl	$8, %esp
 342:HelloCojac.c  **** 	susp_comp_double();
 1872              		.loc 1 342 0
 1873 0bf5 E827FDFF 		call	susp_comp_double
 1873      FF
 343:HelloCojac.c  **** 	susp_comp_float();
 1874              		.loc 1 343 0
 1875 0bfa E8C2FDFF 		call	susp_comp_float
 1875      FF
 344:HelloCojac.c  **** 	susp_comp_int();
 1876              		.loc 1 344 0
 1877 0bff E86BFEFF 		call	susp_comp_int
 1877      FF
 345:HelloCojac.c  **** 	susp_comp_Long();
 1878              		.loc 1 345 0
 1879 0c04 E8BDFEFF 		call	susp_comp_Long
 1879      FF
 346:HelloCojac.c  **** 	susp_comp_short();
 1880              		.loc 1 346 0
 1881 0c09 E886FFFF 		call	susp_comp_short
 1881      FF
 347:HelloCojac.c  **** }
 1882              		.loc 1 347 0
 1883 0c0e C9       		leave
 1884              		.cfi_restore 5
 1885              	.LCFI113:
 1886              		.cfi_def_cfa 4, 4
 1887 0c0f C3       		ret
 1888              		.cfi_endproc
 1889              	.LFE37:
 1892              	norm_comp_double:
 1893              	.LFB38:
 348:HelloCojac.c  **** //------------------------------------------------
 349:HelloCojac.c  **** 
 350:HelloCojac.c  **** static void norm_comp_double() {
 1894              		.loc 1 350 0
 1895              		.cfi_startproc
 1896 0c10 55       		pushl	%ebp
 1897              	.LCFI114:
 1898              		.cfi_def_cfa_offset 8
 1899 0c11 89E5     		movl	%esp, %ebp
 1900              		.cfi_offset 5, -8
 1901              	.LCFI115:
 1902              		.cfi_def_cfa_register 5
 1903 0c13 83EC50   		subl	$80, %esp
 351:HelloCojac.c  ****   double large=1.2E45, small=2.3E-44, max=DBL_MAX, inf=INFINITY, nan=NAN, zero=0.0, pi=3.14;
 1904              		.loc 1 351 0
 1905 0c16 DD050001 		fldl	.LC21
 1905      0000
 1906 0c1c DD5DF8   		fstpl	-8(%ebp)
 1907 0c1f DD050801 		fldl	.LC22
 1907      0000
 1908 0c25 DD5DF0   		fstpl	-16(%ebp)
 1909 0c28 DD051001 		fldl	.LC23
 1909      0000
 1910 0c2e DD5DE8   		fstpl	-24(%ebp)
 1911 0c31 DD05F800 		fldl	.LC19
 1911      0000
 1912 0c37 DD5DE0   		fstpl	-32(%ebp)
 1913 0c3a DD051801 		fldl	.LC24
 1913      0000
 1914 0c40 DD5DD8   		fstpl	-40(%ebp)
 1915 0c43 D9EE     		fldz
 1916 0c45 DD5DD0   		fstpl	-48(%ebp)
 1917 0c48 DD052801 		fldl	.LC29
 1917      0000
 1918 0c4e DD5DC8   		fstpl	-56(%ebp)
 352:HelloCojac.c  ****   double d= 0.0;
 1919              		.loc 1 352 0
 1920 0c51 D9EE     		fldz
 1921 0c53 DD5DC0   		fstpl	-64(%ebp)
 353:HelloCojac.c  **** 
 354:HelloCojac.c  ****   double thirtyeight=38.0, seventythree=73.0;
 1922              		.loc 1 354 0
 1923 0c56 DD053001 		fldl	.LC30
 1923      0000
 1924 0c5c DD5DB8   		fstpl	-72(%ebp)
 1925 0c5f DD053801 		fldl	.LC31
 1925      0000
 1926 0c65 DD5DB0   		fstpl	-80(%ebp)
 355:HelloCojac.c  ****   d=thirtyeight * seventythree;
 1927              		.loc 1 355 0
 1928 0c68 DD45B8   		fldl	-72(%ebp)
 1929 0c6b DC4DB0   		fmull	-80(%ebp)
 1930 0c6e DD5DC0   		fstpl	-64(%ebp)
 356:HelloCojac.c  ****   d=thirtyeight - seventythree;
 1931              		.loc 1 356 0
 1932 0c71 DD45B8   		fldl	-72(%ebp)
 1933 0c74 DC65B0   		fsubl	-80(%ebp)
 1934 0c77 DD5DC0   		fstpl	-64(%ebp)
 357:HelloCojac.c  ****   d=thirtyeight + seventythree;
 1935              		.loc 1 357 0
 1936 0c7a DD45B8   		fldl	-72(%ebp)
 1937 0c7d DC45B0   		faddl	-80(%ebp)
 1938 0c80 DD5DC0   		fstpl	-64(%ebp)
 358:HelloCojac.c  ****   d=thirtyeight / seventythree;
 1939              		.loc 1 358 0
 1940 0c83 DD45B8   		fldl	-72(%ebp)
 1941 0c86 DC75B0   		fdivl	-80(%ebp)
 1942 0c89 DD5DC0   		fstpl	-64(%ebp)
 359:HelloCojac.c  **** 
 360:HelloCojac.c  ****   d= large+large;
 1943              		.loc 1 360 0
 1944 0c8c DD45F8   		fldl	-8(%ebp)
 1945 0c8f D8C0     		fadd	%st(0), %st
 1946 0c91 DD5DC0   		fstpl	-64(%ebp)
 361:HelloCojac.c  ****   d= small+small;
 1947              		.loc 1 361 0
 1948 0c94 DD45F0   		fldl	-16(%ebp)
 1949 0c97 D8C0     		fadd	%st(0), %st
 1950 0c99 DD5DC0   		fstpl	-64(%ebp)
 362:HelloCojac.c  ****   d= max-max;
 1951              		.loc 1 362 0
 1952 0c9c DD45E8   		fldl	-24(%ebp)
 1953 0c9f DC65E8   		fsubl	-24(%ebp)
 1954 0ca2 DD5DC0   		fstpl	-64(%ebp)
 363:HelloCojac.c  ****   d= max/max;
 1955              		.loc 1 363 0
 1956 0ca5 DD45E8   		fldl	-24(%ebp)
 1957 0ca8 DC75E8   		fdivl	-24(%ebp)
 1958 0cab DD5DC0   		fstpl	-64(%ebp)
 364:HelloCojac.c  ****   d= pi*pi;
 1959              		.loc 1 364 0
 1960 0cae DD45C8   		fldl	-56(%ebp)
 1961 0cb1 DC4DC8   		fmull	-56(%ebp)
 1962 0cb4 DD5DC0   		fstpl	-64(%ebp)
 365:HelloCojac.c  **** }
 1963              		.loc 1 365 0
 1964 0cb7 C9       		leave
 1965              		.cfi_restore 5
 1966              	.LCFI116:
 1967              		.cfi_def_cfa 4, 4
 1968 0cb8 C3       		ret
 1969              		.cfi_endproc
 1970              	.LFE38:
 1973              	norm_comp_float:
 1974              	.LFB39:
 366:HelloCojac.c  **** 
 367:HelloCojac.c  **** static void norm_comp_float() {
 1975              		.loc 1 367 0
 1976              		.cfi_startproc
 1977 0cb9 55       		pushl	%ebp
 1978              	.LCFI117:
 1979              		.cfi_def_cfa_offset 8
 1980 0cba 89E5     		movl	%esp, %ebp
 1981              		.cfi_offset 5, -8
 1982              	.LCFI118:
 1983              		.cfi_def_cfa_register 5
 1984 0cbc 83EC20   		subl	$32, %esp
 368:HelloCojac.c  ****   float largef=1.2E15, smallf=2.3E-14, maxf=FLT_MAX, inff=INFINITY, nanf=NAN, zerof=0.0, pif=3.14;
 1985              		.loc 1 368 0
 1986 0cbf B8996C88 		movl	$0x58886c99, %eax
 1986      58
 1987 0cc4 8945FC   		movl	%eax, -4(%ebp)
 1988 0cc7 B8642ACF 		movl	$0x28cf2a64, %eax
 1988      28
 1989 0ccc 8945F8   		movl	%eax, -8(%ebp)
 1990 0ccf B8FFFF7F 		movl	$0x7f7fffff, %eax
 1990      7F
 1991 0cd4 8945F4   		movl	%eax, -12(%ebp)
 1992 0cd7 B8000080 		movl	$0x7f800000, %eax
 1992      7F
 1993 0cdc 8945F0   		movl	%eax, -16(%ebp)
 1994 0cdf B80000C0 		movl	$0x7fc00000, %eax
 1994      7F
 1995 0ce4 8945EC   		movl	%eax, -20(%ebp)
 1996 0ce7 B8000000 		movl	$0x00000000, %eax
 1996      00
 1997 0cec 8945E8   		movl	%eax, -24(%ebp)
 1998 0cef B8C3F548 		movl	$0x4048f5c3, %eax
 1998      40
 1999 0cf4 8945E4   		movl	%eax, -28(%ebp)
 369:HelloCojac.c  ****   float f= 0.0;
 2000              		.loc 1 369 0
 2001 0cf7 B8000000 		movl	$0x00000000, %eax
 2001      00
 2002 0cfc 8945E0   		movl	%eax, -32(%ebp)
 370:HelloCojac.c  ****   f= largef+largef;//printf("line %d: %f\n", __LINE__, f);
 2003              		.loc 1 370 0
 2004 0cff D945FC   		flds	-4(%ebp)
 2005 0d02 D8C0     		fadd	%st(0), %st
 2006 0d04 D95DE0   		fstps	-32(%ebp)
 371:HelloCojac.c  ****   f= smallf+smallf;
 2007              		.loc 1 371 0
 2008 0d07 D945F8   		flds	-8(%ebp)
 2009 0d0a D8C0     		fadd	%st(0), %st
 2010 0d0c D95DE0   		fstps	-32(%ebp)
 372:HelloCojac.c  ****   f= maxf-maxf;
 2011              		.loc 1 372 0
 2012 0d0f D945F4   		flds	-12(%ebp)
 2013 0d12 D865F4   		fsubs	-12(%ebp)
 2014 0d15 D95DE0   		fstps	-32(%ebp)
 373:HelloCojac.c  ****   f= maxf/maxf;
 2015              		.loc 1 373 0
 2016 0d18 D945F4   		flds	-12(%ebp)
 2017 0d1b D875F4   		fdivs	-12(%ebp)
 2018 0d1e D95DE0   		fstps	-32(%ebp)
 374:HelloCojac.c  ****   f= pif*pif;
 2019              		.loc 1 374 0
 2020 0d21 D945E4   		flds	-28(%ebp)
 2021 0d24 D84DE4   		fmuls	-28(%ebp)
 2022 0d27 D95DE0   		fstps	-32(%ebp)
 375:HelloCojac.c  **** }
 2023              		.loc 1 375 0
 2024 0d2a C9       		leave
 2025              		.cfi_restore 5
 2026              	.LCFI119:
 2027              		.cfi_def_cfa 4, 4
 2028 0d2b C3       		ret
 2029              		.cfi_endproc
 2030              	.LFE39:
 2033              	norm_comp_int:
 2034              	.LFB40:
 376:HelloCojac.c  **** 
 377:HelloCojac.c  **** static void norm_comp_int() {
 2035              		.loc 1 377 0
 2036              		.cfi_startproc
 2037 0d2c 55       		pushl	%ebp
 2038              	.LCFI120:
 2039              		.cfi_def_cfa_offset 8
 2040 0d2d 89E5     		movl	%esp, %ebp
 2041              		.cfi_offset 5, -8
 2042              	.LCFI121:
 2043              		.cfi_def_cfa_register 5
 2044 0d2f 83EC20   		subl	$32, %esp
 378:HelloCojac.c  ****   // signed
 379:HelloCojac.c  ****   int32_t si=3, sj=5, sr=0;
 2045              		.loc 1 379 0
 2046 0d32 C745FC03 		movl	$3, -4(%ebp)
 2046      000000
 2047 0d39 C745F805 		movl	$5, -8(%ebp)
 2047      000000
 2048 0d40 C745F400 		movl	$0, -12(%ebp)
 2048      000000
 380:HelloCojac.c  ****   sr=si*sj;
 2049              		.loc 1 380 0
 2050 0d47 8B45FC   		movl	-4(%ebp), %eax
 2051 0d4a 0FAF45F8 		imull	-8(%ebp), %eax
 2052 0d4e 8945F4   		movl	%eax, -12(%ebp)
 381:HelloCojac.c  ****   sr=si+sj;
 2053              		.loc 1 381 0
 2054 0d51 8B45F8   		movl	-8(%ebp), %eax
 2055 0d54 8B55FC   		movl	-4(%ebp), %edx
 2056 0d57 8D0402   		leal	(%edx,%eax), %eax
 2057 0d5a 8945F4   		movl	%eax, -12(%ebp)
 382:HelloCojac.c  ****   sr=si-sj;
 2058              		.loc 1 382 0
 2059 0d5d 8B45F8   		movl	-8(%ebp), %eax
 2060 0d60 8B55FC   		movl	-4(%ebp), %edx
 2061 0d63 89D1     		movl	%edx, %ecx
 2062 0d65 29C1     		subl	%eax, %ecx
 2063 0d67 89C8     		movl	%ecx, %eax
 2064 0d69 8945F4   		movl	%eax, -12(%ebp)
 383:HelloCojac.c  ****   sr=si/sj;
 2065              		.loc 1 383 0
 2066 0d6c 8B45FC   		movl	-4(%ebp), %eax
 2067 0d6f 89C2     		movl	%eax, %edx
 2068 0d71 C1FA1F   		sarl	$31, %edx
 2069 0d74 F77DF8   		idivl	-8(%ebp)
 2070 0d77 8945F4   		movl	%eax, -12(%ebp)
 384:HelloCojac.c  ****   sr=si%sj;
 2071              		.loc 1 384 0
 2072 0d7a 8B45FC   		movl	-4(%ebp), %eax
 2073 0d7d 89C2     		movl	%eax, %edx
 2074 0d7f C1FA1F   		sarl	$31, %edx
 2075 0d82 F77DF8   		idivl	-8(%ebp)
 2076 0d85 8955F4   		movl	%edx, -12(%ebp)
 385:HelloCojac.c  **** 
 386:HelloCojac.c  ****   // unsigned
 387:HelloCojac.c  ****   uint32_t ui=3, uj=5, ur=0;
 2077              		.loc 1 387 0
 2078 0d88 C745F003 		movl	$3, -16(%ebp)
 2078      000000
 2079 0d8f C745EC05 		movl	$5, -20(%ebp)
 2079      000000
 2080 0d96 C745E800 		movl	$0, -24(%ebp)
 2080      000000
 388:HelloCojac.c  ****   ur=ui*uj;
 2081              		.loc 1 388 0
 2082 0d9d 8B45F0   		movl	-16(%ebp), %eax
 2083 0da0 0FAF45EC 		imull	-20(%ebp), %eax
 2084 0da4 8945E8   		movl	%eax, -24(%ebp)
 389:HelloCojac.c  ****   ur=ui+uj;
 2085              		.loc 1 389 0
 2086 0da7 8B45EC   		movl	-20(%ebp), %eax
 2087 0daa 8B55F0   		movl	-16(%ebp), %edx
 2088 0dad 8D0402   		leal	(%edx,%eax), %eax
 2089 0db0 8945E8   		movl	%eax, -24(%ebp)
 390:HelloCojac.c  ****   ur=ui-uj;
 2090              		.loc 1 390 0
 2091 0db3 8B45EC   		movl	-20(%ebp), %eax
 2092 0db6 8B55F0   		movl	-16(%ebp), %edx
 2093 0db9 89D1     		movl	%edx, %ecx
 2094 0dbb 29C1     		subl	%eax, %ecx
 2095 0dbd 89C8     		movl	%ecx, %eax
 2096 0dbf 8945E8   		movl	%eax, -24(%ebp)
 391:HelloCojac.c  ****   ur=ui/uj;
 2097              		.loc 1 391 0
 2098 0dc2 8B45F0   		movl	-16(%ebp), %eax
 2099 0dc5 BA000000 		movl	$0, %edx
 2099      00
 2100 0dca F775EC   		divl	-20(%ebp)
 2101 0dcd 8945E8   		movl	%eax, -24(%ebp)
 392:HelloCojac.c  ****   ur=ui%uj;
 2102              		.loc 1 392 0
 2103 0dd0 8B45F0   		movl	-16(%ebp), %eax
 2104 0dd3 BA000000 		movl	$0, %edx
 2104      00
 2105 0dd8 F775EC   		divl	-20(%ebp)
 2106 0ddb 8955E8   		movl	%edx, -24(%ebp)
 393:HelloCojac.c  **** }
 2107              		.loc 1 393 0
 2108 0dde C9       		leave
 2109              		.cfi_restore 5
 2110              	.LCFI122:
 2111              		.cfi_def_cfa 4, 4
 2112 0ddf C3       		ret
 2113              		.cfi_endproc
 2114              	.LFE40:
 2116              	.globl __divdi3
 2117              	.globl __moddi3
 2118              	.globl __udivdi3
 2119              	.globl __umoddi3
 2121              	norm_comp_long:
 2122              	.LFB41:
 394:HelloCojac.c  **** 
 395:HelloCojac.c  **** static void norm_comp_long() {
 2123              		.loc 1 395 0
 2124              		.cfi_startproc
 2125 0de0 55       		pushl	%ebp
 2126              	.LCFI123:
 2127              		.cfi_def_cfa_offset 8
 2128 0de1 89E5     		movl	%esp, %ebp
 2129              		.cfi_offset 5, -8
 2130              	.LCFI124:
 2131              		.cfi_def_cfa_register 5
 2132 0de3 53       		pushl	%ebx
 2133 0de4 83EC44   		subl	$68, %esp
 396:HelloCojac.c  ****   // signed
 397:HelloCojac.c  ****   int64_t si=3L, sj=5L, sr=0L;
 2134              		.loc 1 397 0
 2135 0de7 C745F003 		movl	$3, -16(%ebp)
 2135      000000
 2136 0dee C745F400 		movl	$0, -12(%ebp)
 2136      000000
 2137 0df5 C745E805 		movl	$5, -24(%ebp)
 2137      000000
 2138 0dfc C745EC00 		movl	$0, -20(%ebp)
 2138      000000
 2139 0e03 C745E000 		movl	$0, -32(%ebp)
 2139      000000
 2140 0e0a C745E400 		movl	$0, -28(%ebp)
 2140      000000
 398:HelloCojac.c  ****   sr=si*sj;
 2141              		.loc 1 398 0
 2142 0e11 8B45F4   		movl	-12(%ebp), %eax
 2143 0e14 89C1     		movl	%eax, %ecx
 2144 0e16 0FAF4DE8 		imull	-24(%ebp), %ecx
 2145 0e1a 8B45EC   		movl	-20(%ebp), %eax
 2146 0e1d 0FAF45F0 		imull	-16(%ebp), %eax
 2147 0e21 01C1     		addl	%eax, %ecx
 2148 0e23 8B45E8   		movl	-24(%ebp), %eax
 2149 0e26 F765F0   		mull	-16(%ebp)
 2150 0e29 01D1     		addl	%edx, %ecx
 2151 0e2b 89CA     		movl	%ecx, %edx
 2152 0e2d 8945E0   		movl	%eax, -32(%ebp)
 2153 0e30 8955E4   		movl	%edx, -28(%ebp)
 2154 0e33 8945E0   		movl	%eax, -32(%ebp)
 2155 0e36 8955E4   		movl	%edx, -28(%ebp)
 399:HelloCojac.c  ****   sr=si+sj;
 2156              		.loc 1 399 0
 2157 0e39 8B45E8   		movl	-24(%ebp), %eax
 2158 0e3c 8B55EC   		movl	-20(%ebp), %edx
 2159 0e3f 8B4DF0   		movl	-16(%ebp), %ecx
 2160 0e42 8B5DF4   		movl	-12(%ebp), %ebx
 2161              		.cfi_offset 3, -12
 2162 0e45 01C8     		addl	%ecx, %eax
 2163 0e47 11DA     		adcl	%ebx, %edx
 2164 0e49 8945E0   		movl	%eax, -32(%ebp)
 2165 0e4c 8955E4   		movl	%edx, -28(%ebp)
 400:HelloCojac.c  ****   sr=si-sj;
 2166              		.loc 1 400 0
 2167 0e4f 8B4DE8   		movl	-24(%ebp), %ecx
 2168 0e52 8B5DEC   		movl	-20(%ebp), %ebx
 2169 0e55 8B45F0   		movl	-16(%ebp), %eax
 2170 0e58 8B55F4   		movl	-12(%ebp), %edx
 2171 0e5b 29C8     		subl	%ecx, %eax
 2172 0e5d 19DA     		sbbl	%ebx, %edx
 2173 0e5f 8945E0   		movl	%eax, -32(%ebp)
 2174 0e62 8955E4   		movl	%edx, -28(%ebp)
 401:HelloCojac.c  ****   sr=si/sj;
 2175              		.loc 1 401 0
 2176 0e65 8B45E8   		movl	-24(%ebp), %eax
 2177 0e68 8B55EC   		movl	-20(%ebp), %edx
 2178 0e6b 89442408 		movl	%eax, 8(%esp)
 2179 0e6f 8954240C 		movl	%edx, 12(%esp)
 2180 0e73 8B45F0   		movl	-16(%ebp), %eax
 2181 0e76 8B55F4   		movl	-12(%ebp), %edx
 2182 0e79 890424   		movl	%eax, (%esp)
 2183 0e7c 89542404 		movl	%edx, 4(%esp)
 2184 0e80 E8FCFFFF 		call	__divdi3
 2184      FF
 2185 0e85 8945E0   		movl	%eax, -32(%ebp)
 2186 0e88 8955E4   		movl	%edx, -28(%ebp)
 402:HelloCojac.c  ****   sr=si%sj;
 2187              		.loc 1 402 0
 2188 0e8b 8B45F0   		movl	-16(%ebp), %eax
 2189 0e8e 8B55F4   		movl	-12(%ebp), %edx
 2190 0e91 8B4DE8   		movl	-24(%ebp), %ecx
 2191 0e94 8B5DEC   		movl	-20(%ebp), %ebx
 2192 0e97 894C2408 		movl	%ecx, 8(%esp)
 2193 0e9b 895C240C 		movl	%ebx, 12(%esp)
 2194 0e9f 890424   		movl	%eax, (%esp)
 2195 0ea2 89542404 		movl	%edx, 4(%esp)
 2196 0ea6 E8FCFFFF 		call	__moddi3
 2196      FF
 2197 0eab 8945E0   		movl	%eax, -32(%ebp)
 2198 0eae 8955E4   		movl	%edx, -28(%ebp)
 403:HelloCojac.c  **** 
 404:HelloCojac.c  ****   // unsigned
 405:HelloCojac.c  ****   uint64_t ui=3L, uj=5L, ur=0L;
 2199              		.loc 1 405 0
 2200 0eb1 C745D803 		movl	$3, -40(%ebp)
 2200      000000
 2201 0eb8 C745DC00 		movl	$0, -36(%ebp)
 2201      000000
 2202 0ebf C745D005 		movl	$5, -48(%ebp)
 2202      000000
 2203 0ec6 C745D400 		movl	$0, -44(%ebp)
 2203      000000
 2204 0ecd C745C800 		movl	$0, -56(%ebp)
 2204      000000
 2205 0ed4 C745CC00 		movl	$0, -52(%ebp)
 2205      000000
 406:HelloCojac.c  ****   ur=ui*uj;
 2206              		.loc 1 406 0
 2207 0edb 8B45DC   		movl	-36(%ebp), %eax
 2208 0ede 89C1     		movl	%eax, %ecx
 2209 0ee0 0FAF4DD0 		imull	-48(%ebp), %ecx
 2210 0ee4 8B45D4   		movl	-44(%ebp), %eax
 2211 0ee7 0FAF45D8 		imull	-40(%ebp), %eax
 2212 0eeb 01C1     		addl	%eax, %ecx
 2213 0eed 8B45D0   		movl	-48(%ebp), %eax
 2214 0ef0 F765D8   		mull	-40(%ebp)
 2215 0ef3 01D1     		addl	%edx, %ecx
 2216 0ef5 89CA     		movl	%ecx, %edx
 2217 0ef7 8945C8   		movl	%eax, -56(%ebp)
 2218 0efa 8955CC   		movl	%edx, -52(%ebp)
 2219 0efd 8945C8   		movl	%eax, -56(%ebp)
 2220 0f00 8955CC   		movl	%edx, -52(%ebp)
 407:HelloCojac.c  ****   ur=ui+uj;
 2221              		.loc 1 407 0
 2222 0f03 8B45D0   		movl	-48(%ebp), %eax
 2223 0f06 8B55D4   		movl	-44(%ebp), %edx
 2224 0f09 8B4DD8   		movl	-40(%ebp), %ecx
 2225 0f0c 8B5DDC   		movl	-36(%ebp), %ebx
 2226 0f0f 01C8     		addl	%ecx, %eax
 2227 0f11 11DA     		adcl	%ebx, %edx
 2228 0f13 8945C8   		movl	%eax, -56(%ebp)
 2229 0f16 8955CC   		movl	%edx, -52(%ebp)
 408:HelloCojac.c  ****   ur=ui-uj;
 2230              		.loc 1 408 0
 2231 0f19 8B4DD0   		movl	-48(%ebp), %ecx
 2232 0f1c 8B5DD4   		movl	-44(%ebp), %ebx
 2233 0f1f 8B45D8   		movl	-40(%ebp), %eax
 2234 0f22 8B55DC   		movl	-36(%ebp), %edx
 2235 0f25 29C8     		subl	%ecx, %eax
 2236 0f27 19DA     		sbbl	%ebx, %edx
 2237 0f29 8945C8   		movl	%eax, -56(%ebp)
 2238 0f2c 8955CC   		movl	%edx, -52(%ebp)
 409:HelloCojac.c  ****   ur=ui/uj;
 2239              		.loc 1 409 0
 2240 0f2f 8B45D0   		movl	-48(%ebp), %eax
 2241 0f32 8B55D4   		movl	-44(%ebp), %edx
 2242 0f35 89442408 		movl	%eax, 8(%esp)
 2243 0f39 8954240C 		movl	%edx, 12(%esp)
 2244 0f3d 8B45D8   		movl	-40(%ebp), %eax
 2245 0f40 8B55DC   		movl	-36(%ebp), %edx
 2246 0f43 890424   		movl	%eax, (%esp)
 2247 0f46 89542404 		movl	%edx, 4(%esp)
 2248 0f4a E8FCFFFF 		call	__udivdi3
 2248      FF
 2249 0f4f 8945C8   		movl	%eax, -56(%ebp)
 2250 0f52 8955CC   		movl	%edx, -52(%ebp)
 410:HelloCojac.c  ****   ur=ui%uj;
 2251              		.loc 1 410 0
 2252 0f55 8B45D8   		movl	-40(%ebp), %eax
 2253 0f58 8B55DC   		movl	-36(%ebp), %edx
 2254 0f5b 8B4DD0   		movl	-48(%ebp), %ecx
 2255 0f5e 8B5DD4   		movl	-44(%ebp), %ebx
 2256 0f61 894C2408 		movl	%ecx, 8(%esp)
 2257 0f65 895C240C 		movl	%ebx, 12(%esp)
 2258 0f69 890424   		movl	%eax, (%esp)
 2259 0f6c 89542404 		movl	%edx, 4(%esp)
 2260 0f70 E8FCFFFF 		call	__umoddi3
 2260      FF
 2261 0f75 8945C8   		movl	%eax, -56(%ebp)
 2262 0f78 8955CC   		movl	%edx, -52(%ebp)
 411:HelloCojac.c  **** 
 412:HelloCojac.c  **** }
 2263              		.loc 1 412 0
 2264 0f7b 83C444   		addl	$68, %esp
 2265 0f7e 5B       		popl	%ebx
 2266              		.cfi_restore 3
 2267 0f7f 5D       		popl	%ebp
 2268              		.cfi_restore 5
 2269              	.LCFI125:
 2270              		.cfi_def_cfa 4, 4
 2271 0f80 C3       		ret
 2272              		.cfi_endproc
 2273              	.LFE41:
 2276              	norm_comp_short:
 2277              	.LFB42:
 413:HelloCojac.c  **** static void norm_comp_short() {
 2278              		.loc 1 413 0
 2279              		.cfi_startproc
 2280 0f81 55       		pushl	%ebp
 2281              	.LCFI126:
 2282              		.cfi_def_cfa_offset 8
 2283 0f82 89E5     		movl	%esp, %ebp
 2284              		.cfi_offset 5, -8
 2285              	.LCFI127:
 2286              		.cfi_def_cfa_register 5
 2287 0f84 83EC14   		subl	$20, %esp
 414:HelloCojac.c  ****   // signed
 415:HelloCojac.c  ****   int16_t sis=3, sjs=5, srs=0;
 2288              		.loc 1 415 0
 2289 0f87 66C745FE 		movw	$3, -2(%ebp)
 2289      0300
 2290 0f8d 66C745FC 		movw	$5, -4(%ebp)
 2290      0500
 2291 0f93 66C745FA 		movw	$0, -6(%ebp)
 2291      0000
 416:HelloCojac.c  ****   srs=sis*sjs;
 2292              		.loc 1 416 0
 2293 0f99 0FB755FE 		movzwl	-2(%ebp), %edx
 2294 0f9d 0FB745FC 		movzwl	-4(%ebp), %eax
 2295 0fa1 0FAFC2   		imull	%edx, %eax
 2296 0fa4 668945FA 		movw	%ax, -6(%ebp)
 417:HelloCojac.c  ****   srs=sis+sjs;
 2297              		.loc 1 417 0
 2298 0fa8 0FB755FE 		movzwl	-2(%ebp), %edx
 2299 0fac 0FB745FC 		movzwl	-4(%ebp), %eax
 2300 0fb0 8D0402   		leal	(%edx,%eax), %eax
 2301 0fb3 668945FA 		movw	%ax, -6(%ebp)
 418:HelloCojac.c  ****   srs=sis-sjs;
 2302              		.loc 1 418 0
 2303 0fb7 0FB755FE 		movzwl	-2(%ebp), %edx
 2304 0fbb 0FB745FC 		movzwl	-4(%ebp), %eax
 2305 0fbf 89D1     		movl	%edx, %ecx
 2306 0fc1 6629C1   		subw	%ax, %cx
 2307 0fc4 89C8     		movl	%ecx, %eax
 2308 0fc6 668945FA 		movw	%ax, -6(%ebp)
 419:HelloCojac.c  ****   srs=sis/sjs;
 2309              		.loc 1 419 0
 2310 0fca 0FBF45FE 		movswl	-2(%ebp), %eax
 2311 0fce 0FBF55FC 		movswl	-4(%ebp), %edx
 2312 0fd2 8955EC   		movl	%edx, -20(%ebp)
 2313 0fd5 89C2     		movl	%eax, %edx
 2314 0fd7 C1FA1F   		sarl	$31, %edx
 2315 0fda F77DEC   		idivl	-20(%ebp)
 2316 0fdd 668945FA 		movw	%ax, -6(%ebp)
 420:HelloCojac.c  ****   srs=sis%sjs;
 2317              		.loc 1 420 0
 2318 0fe1 0FBF45FE 		movswl	-2(%ebp), %eax
 2319 0fe5 0FBF4DFC 		movswl	-4(%ebp), %ecx
 2320 0fe9 89C2     		movl	%eax, %edx
 2321 0feb C1FA1F   		sarl	$31, %edx
 2322 0fee F7F9     		idivl	%ecx
 2323 0ff0 89D0     		movl	%edx, %eax
 2324 0ff2 668945FA 		movw	%ax, -6(%ebp)
 421:HelloCojac.c  **** 
 422:HelloCojac.c  ****   // unsigned
 423:HelloCojac.c  ****   uint16_t uis=3, ujs=5, urs=0;
 2325              		.loc 1 423 0
 2326 0ff6 66C745F8 		movw	$3, -8(%ebp)
 2326      0300
 2327 0ffc 66C745F6 		movw	$5, -10(%ebp)
 2327      0500
 2328 1002 66C745F4 		movw	$0, -12(%ebp)
 2328      0000
 424:HelloCojac.c  ****   urs=uis*ujs;
 2329              		.loc 1 424 0
 2330 1008 0FB745F8 		movzwl	-8(%ebp), %eax
 2331 100c 660FAF45 		imulw	-10(%ebp), %ax
 2331      F6
 2332 1011 668945F4 		movw	%ax, -12(%ebp)
 425:HelloCojac.c  ****   urs=uis+ujs;
 2333              		.loc 1 425 0
 2334 1015 0FB745F6 		movzwl	-10(%ebp), %eax
 2335 1019 0FB755F8 		movzwl	-8(%ebp), %edx
 2336 101d 8D0402   		leal	(%edx,%eax), %eax
 2337 1020 668945F4 		movw	%ax, -12(%ebp)
 426:HelloCojac.c  ****   urs=uis-ujs;
 2338              		.loc 1 426 0
 2339 1024 0FB745F6 		movzwl	-10(%ebp), %eax
 2340 1028 0FB755F8 		movzwl	-8(%ebp), %edx
 2341 102c 89D1     		movl	%edx, %ecx
 2342 102e 6629C1   		subw	%ax, %cx
 2343 1031 89C8     		movl	%ecx, %eax
 2344 1033 668945F4 		movw	%ax, -12(%ebp)
 427:HelloCojac.c  ****   urs=uis/ujs;
 2345              		.loc 1 427 0
 2346 1037 0FB745F8 		movzwl	-8(%ebp), %eax
 2347 103b BA000000 		movl	$0, %edx
 2347      00
 2348 1040 66F775F6 		divw	-10(%ebp)
 2349 1044 668945F4 		movw	%ax, -12(%ebp)
 428:HelloCojac.c  ****   urs=uis%ujs;
 2350              		.loc 1 428 0
 2351 1048 0FB745F8 		movzwl	-8(%ebp), %eax
 2352 104c BA000000 		movl	$0, %edx
 2352      00
 2353 1051 66F775F6 		divw	-10(%ebp)
 2354 1055 668955F4 		movw	%dx, -12(%ebp)
 429:HelloCojac.c  **** }
 2355              		.loc 1 429 0
 2356 1059 C9       		leave
 2357              		.cfi_restore 5
 2358              	.LCFI128:
 2359              		.cfi_def_cfa 4, 4
 2360 105a C3       		ret
 2361              		.cfi_endproc
 2362              	.LFE42:
 2365              	normal_computations:
 2366              	.LFB43:
 430:HelloCojac.c  **** 
 431:HelloCojac.c  **** 
 432:HelloCojac.c  **** static void normal_computations() {
 2367              		.loc 1 432 0
 2368              		.cfi_startproc
 2369 105b 55       		pushl	%ebp
 2370              	.LCFI129:
 2371              		.cfi_def_cfa_offset 8
 2372 105c 89E5     		movl	%esp, %ebp
 2373              		.cfi_offset 5, -8
 2374              	.LCFI130:
 2375              		.cfi_def_cfa_register 5
 2376 105e 83EC08   		subl	$8, %esp
 433:HelloCojac.c  ****   norm_comp_double();
 2377              		.loc 1 433 0
 2378 1061 E8AAFBFF 		call	norm_comp_double
 2378      FF
 434:HelloCojac.c  ****   norm_comp_float();
 2379              		.loc 1 434 0
 2380 1066 E84EFCFF 		call	norm_comp_float
 2380      FF
 435:HelloCojac.c  ****   norm_comp_int();
 2381              		.loc 1 435 0
 2382 106b E8BCFCFF 		call	norm_comp_int
 2382      FF
 436:HelloCojac.c  ****   norm_comp_long();
 2383              		.loc 1 436 0
 2384 1070 E86BFDFF 		call	norm_comp_long
 2384      FF
 437:HelloCojac.c  ****   norm_comp_short();
 2385              		.loc 1 437 0
 2386 1075 E807FFFF 		call	norm_comp_short
 2386      FF
 438:HelloCojac.c  **** }
 2387              		.loc 1 438 0
 2388 107a C9       		leave
 2389              		.cfi_restore 5
 2390              	.LCFI131:
 2391              		.cfi_def_cfa 4, 4
 2392 107b C3       		ret
 2393              		.cfi_endproc
 2394              	.LFE43:
 2396              	.globl main
 2398              	main:
 2399              	.LFB44:
 439:HelloCojac.c  **** 
 440:HelloCojac.c  **** //------------------------------------------------
 441:HelloCojac.c  **** 
 442:HelloCojac.c  **** int main() {
 2400              		.loc 1 442 0
 2401              		.cfi_startproc
 2402 107c 55       		pushl	%ebp
 2403              	.LCFI132:
 2404              		.cfi_def_cfa_offset 8
 2405 107d 89E5     		movl	%esp, %ebp
 2406              		.cfi_offset 5, -8
 2407              	.LCFI133:
 2408              		.cfi_def_cfa_register 5
 2409 107f 83E4F0   		andl	$-16, %esp
 443:HelloCojac.c  ****   suspecious_computations();
 2410              		.loc 1 443 0
 2411 1082 E868FBFF 		call	suspecious_computations
 2411      FF
 444:HelloCojac.c  ****   normal_computations();
 2412              		.loc 1 444 0
 2413 1087 E8CFFFFF 		call	normal_computations
 2413      FF
 445:HelloCojac.c  ****   return 0;
 2414              		.loc 1 445 0
 2415 108c B8000000 		movl	$0, %eax
 2415      00
 446:HelloCojac.c  **** }
 2416              		.loc 1 446 0
 2417 1091 89EC     		movl	%ebp, %esp
 2418              	.LCFI134:
 2419              		.cfi_def_cfa_register 4
 2420 1093 5D       		popl	%ebp
 2421              		.cfi_restore 5
 2422              	.LCFI135:
 2423              		.cfi_def_cfa_offset 4
 2424 1094 C3       		ret
 2425              		.cfi_endproc
 2426              	.LFE44:
 2428              		.section	.rodata
 2429 00db 00       		.align 4
 2430              	.LC3:
 2431 00dc 00EAEE46 		.long	1190062592
 2432              		.align 8
 2433              	.LC5:
 2434 00e0 EA05644B 		.long	1264846314
 2435 00e4 F3C8A04A 		.long	1252051187
 2436              		.align 8
 2437              	.LC15:
 2438 00e8 00000000 		.long	0
 2439 00ec 00000040 		.long	1073741824
 2440              		.align 8
 2441              	.LC17:
 2442 00f0 48E17A14 		.long	343597384
 2443 00f4 AE470940 		.long	1074349998
 2444              		.align 8
 2445              	.LC19:
 2446 00f8 00000000 		.long	0
 2447 00fc 0000F07F 		.long	2146435072
 2448              		.align 8
 2449              	.LC21:
 2450 0100 F13BB786 		.long	2260155377
 2451 0104 A9E74A49 		.long	1229645737
 2452              		.align 8
 2453              	.LC22:
 2454 0108 B5D47F34 		.long	880792757
 2455 010c D169E036 		.long	920676817
 2456              		.align 8
 2457              	.LC23:
 2458 0110 FFFFFFFF 		.long	4294967295
 2459 0114 FFFFEF7F 		.long	2146435071
 2460              		.align 8
 2461              	.LC24:
 2462 0118 00000000 		.long	0
 2463 011c 0000F87F 		.long	2146959360
 2464              		.align 8
 2465              	.LC26:
 2466 0120 00000000 		.long	0
 2467 0124 00000A40 		.long	1074397184
 2468              		.align 8
 2469              	.LC29:
 2470 0128 1F85EB51 		.long	1374389535
 2471 012c B81E0940 		.long	1074339512
 2472              		.align 8
 2473              	.LC30:
 2474 0130 00000000 		.long	0
 2475 0134 00004340 		.long	1078132736
 2476              		.align 8
 2477              	.LC31:
 2478 0138 00000000 		.long	0
 2479 013c 00405240 		.long	1079132160
 2480              		.text
 2481              	.Letext0:
