	.file	"HelloCojac.c"
	.text
.Ltext0:
	.cfi_sections	.debug_frame
	.type	longFromDouble, @function
longFromDouble:
.LFB0:
	.file 1 "HelloCojac.c"
	.loc 1 71 0
	.cfi_startproc
	pushl	%ebp
.LCFI0:
	.cfi_def_cfa_offset 8
	movl	%esp, %ebp
	.cfi_offset 5, -8
.LCFI1:
	.cfi_def_cfa_register 5
	subl	$24, %esp
	movl	8(%ebp), %eax
	movl	%eax, -24(%ebp)
	movl	12(%ebp), %eax
	movl	%eax, -20(%ebp)
	.loc 1 72 0
	fldl	-24(%ebp)
	fstpl	-8(%ebp)
	movl	-8(%ebp), %eax
	movl	-4(%ebp), %edx
	.loc 1 73 0
	leave
	.cfi_restore 5
.LCFI2:
	.cfi_def_cfa 4, 4
	ret
	.cfi_endproc
.LFE0:
	.size	longFromDouble, .-longFromDouble
	.type	doubleFromLong, @function
doubleFromLong:
.LFB1:
	.loc 1 74 0
	.cfi_startproc
	pushl	%ebp
.LCFI3:
	.cfi_def_cfa_offset 8
	movl	%esp, %ebp
	.cfi_offset 5, -8
.LCFI4:
	.cfi_def_cfa_register 5
	subl	$24, %esp
	movl	8(%ebp), %eax
	movl	%eax, -24(%ebp)
	movl	12(%ebp), %eax
	movl	%eax, -20(%ebp)
	.loc 1 75 0
	movl	-24(%ebp), %eax
	movl	-20(%ebp), %edx
	movl	%eax, -8(%ebp)
	movl	%edx, -4(%ebp)
	fldl	-8(%ebp)
	.loc 1 76 0
	leave
	.cfi_restore 5
.LCFI5:
	.cfi_def_cfa 4, 4
	ret
	.cfi_endproc
.LFE1:
	.size	doubleFromLong, .-doubleFromLong
	.type	uintFromInt, @function
uintFromInt:
.LFB2:
	.loc 1 78 0
	.cfi_startproc
	pushl	%ebp
.LCFI6:
	.cfi_def_cfa_offset 8
	movl	%esp, %ebp
	.cfi_offset 5, -8
.LCFI7:
	.cfi_def_cfa_register 5
	subl	$16, %esp
	.loc 1 79 0
	movl	8(%ebp), %eax
	movl	%eax, -4(%ebp)
	movl	-4(%ebp), %eax
	.loc 1 80 0
	leave
	.cfi_restore 5
.LCFI8:
	.cfi_def_cfa 4, 4
	ret
	.cfi_endproc
.LFE2:
	.size	uintFromInt, .-uintFromInt
	.type	intFromUInt, @function
intFromUInt:
.LFB3:
	.loc 1 81 0
	.cfi_startproc
	pushl	%ebp
.LCFI9:
	.cfi_def_cfa_offset 8
	movl	%esp, %ebp
	.cfi_offset 5, -8
.LCFI10:
	.cfi_def_cfa_register 5
	subl	$16, %esp
	.loc 1 82 0
	movl	8(%ebp), %eax
	movl	%eax, -4(%ebp)
	movl	-4(%ebp), %eax
	.loc 1 83 0
	leave
	.cfi_restore 5
.LCFI11:
	.cfi_def_cfa 4, 4
	ret
	.cfi_endproc
.LFE3:
	.size	intFromUInt, .-intFromUInt
	.type	floatFromInt, @function
floatFromInt:
.LFB4:
	.loc 1 84 0
	.cfi_startproc
	pushl	%ebp
.LCFI12:
	.cfi_def_cfa_offset 8
	movl	%esp, %ebp
	.cfi_offset 5, -8
.LCFI13:
	.cfi_def_cfa_register 5
	subl	$20, %esp
	.loc 1 85 0
	movl	8(%ebp), %eax
	movl	%eax, -4(%ebp)
	movl	-4(%ebp), %eax
	movl	%eax, -20(%ebp)
	flds	-20(%ebp)
	.loc 1 86 0
	leave
	.cfi_restore 5
.LCFI14:
	.cfi_def_cfa 4, 4
	ret
	.cfi_endproc
.LFE4:
	.size	floatFromInt, .-floatFromInt
	.type	longFromTwoUInts, @function
longFromTwoUInts:
.LFB5:
	.loc 1 88 0
	.cfi_startproc
	pushl	%ebp
.LCFI15:
	.cfi_def_cfa_offset 8
	movl	%esp, %ebp
	.cfi_offset 5, -8
.LCFI16:
	.cfi_def_cfa_register 5
	pushl	%esi
	pushl	%ebx
	subl	$16, %esp
	.loc 1 89 0
	movl	8(%ebp), %eax
	movl	$0, %edx
	movl	%eax, -16(%ebp)
	movl	%edx, -12(%ebp)
	.loc 1 90 0
	movl	-16(%ebp), %eax
	movl	-12(%ebp), %edx
	movl	%eax, %ecx
	movl	%edx, %ebx
	.cfi_offset 3, -16
	.cfi_offset 6, -12
	movl	%ecx, %ebx
	movl	$0, %ecx
	movl	12(%ebp), %eax
	movl	$0, %edx
	movl	%ecx, %esi
	orl	%eax, %esi
	movl	%esi, -16(%ebp)
	movl	%ebx, %eax
	orl	%edx, %eax
	movl	%eax, -12(%ebp)
	.loc 1 91 0
	movl	-16(%ebp), %eax
	movl	-12(%ebp), %edx
	.loc 1 92 0
	addl	$16, %esp
	popl	%ebx
	.cfi_restore 3
	popl	%esi
	.cfi_restore 6
	popl	%ebp
	.cfi_restore 5
.LCFI17:
	.cfi_def_cfa 4, 4
	ret
	.cfi_endproc
.LFE5:
	.size	longFromTwoUInts, .-longFromTwoUInts
	.type	longFromTwoUInts_New, @function
longFromTwoUInts_New:
.LFB6:
	.loc 1 93 0
	.cfi_startproc
	pushl	%ebp
.LCFI18:
	.cfi_def_cfa_offset 8
	movl	%esp, %ebp
	.cfi_offset 5, -8
.LCFI19:
	.cfi_def_cfa_register 5
	subl	$16, %esp
	.loc 1 94 0
	movl	8(%ebp), %eax
	movl	%eax, -4(%ebp)
	movl	12(%ebp), %eax
	movl	%eax, -8(%ebp)
	.loc 1 95 0
	movl	-8(%ebp), %eax
	movl	-4(%ebp), %edx
	.loc 1 96 0
	leave
	.cfi_restore 5
.LCFI20:
	.cfi_def_cfa 4, 4
	ret
	.cfi_endproc
.LFE6:
	.size	longFromTwoUInts_New, .-longFromTwoUInts_New
	.type	longFromTwoInts, @function
longFromTwoInts:
.LFB7:
	.loc 1 98 0
	.cfi_startproc
	pushl	%ebp
.LCFI21:
	.cfi_def_cfa_offset 8
	movl	%esp, %ebp
	.cfi_offset 5, -8
.LCFI22:
	.cfi_def_cfa_register 5
	pushl	%ebx
	subl	$12, %esp
	.loc 1 99 0
	movl	12(%ebp), %eax
	movl	%eax, (%esp)
	.cfi_offset 3, -12
	call	uintFromInt
	movl	%eax, %ebx
	movl	8(%ebp), %eax
	movl	%eax, (%esp)
	call	uintFromInt
	movl	%ebx, 4(%esp)
	movl	%eax, (%esp)
	call	longFromTwoUInts
	.loc 1 100 0
	addl	$12, %esp
	popl	%ebx
	.cfi_restore 3
	popl	%ebp
	.cfi_restore 5
.LCFI23:
	.cfi_def_cfa 4, 4
	ret
	.cfi_endproc
.LFE7:
	.size	longFromTwoInts, .-longFromTwoInts
	.type	longToTwoUInts, @function
longToTwoUInts:
.LFB8:
	.loc 1 101 0
	.cfi_startproc
	pushl	%ebp
.LCFI24:
	.cfi_def_cfa_offset 8
	movl	%esp, %ebp
	.cfi_offset 5, -8
.LCFI25:
	.cfi_def_cfa_register 5
	subl	$8, %esp
	movl	8(%ebp), %eax
	movl	%eax, -8(%ebp)
	movl	12(%ebp), %eax
	movl	%eax, -4(%ebp)
	.loc 1 102 0
	movl	-8(%ebp), %edx
	movl	20(%ebp), %eax
	movl	%edx, (%eax)
	.loc 1 103 0
	movl	-8(%ebp), %eax
	movl	-4(%ebp), %edx
	movl	%edx, %eax
	xorl	%edx, %edx
	movl	%eax, %edx
	movl	16(%ebp), %eax
	movl	%edx, (%eax)
	.loc 1 104 0
	leave
	.cfi_restore 5
.LCFI26:
	.cfi_def_cfa 4, 4
	ret
	.cfi_endproc
.LFE8:
	.size	longToTwoUInts, .-longToTwoUInts
	.type	longToTwoUInts_New, @function
longToTwoUInts_New:
.LFB9:
	.loc 1 105 0
	.cfi_startproc
	pushl	%ebp
.LCFI27:
	.cfi_def_cfa_offset 8
	movl	%esp, %ebp
	.cfi_offset 5, -8
.LCFI28:
	.cfi_def_cfa_register 5
	subl	$24, %esp
	movl	8(%ebp), %eax
	movl	%eax, -24(%ebp)
	movl	12(%ebp), %eax
	movl	%eax, -20(%ebp)
	.loc 1 106 0
	movl	-24(%ebp), %eax
	movl	-20(%ebp), %edx
	movl	%eax, -8(%ebp)
	movl	%edx, -4(%ebp)
	.loc 1 107 0
	movl	-4(%ebp), %edx
	movl	16(%ebp), %eax
	movl	%edx, (%eax)
	.loc 1 108 0
	movl	-8(%ebp), %edx
	movl	20(%ebp), %eax
	movl	%edx, (%eax)
	.loc 1 109 0
	leave
	.cfi_restore 5
.LCFI29:
	.cfi_def_cfa 4, 4
	ret
	.cfi_endproc
.LFE9:
	.size	longToTwoUInts_New, .-longToTwoUInts_New
	.type	longToTwoInts, @function
longToTwoInts:
.LFB10:
	.loc 1 111 0
	.cfi_startproc
	pushl	%ebp
.LCFI30:
	.cfi_def_cfa_offset 8
	movl	%esp, %ebp
	.cfi_offset 5, -8
.LCFI31:
	.cfi_def_cfa_register 5
	subl	$40, %esp
	movl	8(%ebp), %eax
	movl	%eax, -24(%ebp)
	movl	12(%ebp), %eax
	movl	%eax, -20(%ebp)
	.loc 1 113 0
	leal	-8(%ebp), %eax
	movl	%eax, 12(%esp)
	leal	-4(%ebp), %eax
	movl	%eax, 8(%esp)
	movl	-24(%ebp), %eax
	movl	-20(%ebp), %edx
	movl	%eax, (%esp)
	movl	%edx, 4(%esp)
	call	longToTwoUInts
	.loc 1 114 0
	movl	-4(%ebp), %eax
	movl	%eax, (%esp)
	call	intFromUInt
	movl	16(%ebp), %edx
	movl	%eax, (%edx)
	.loc 1 115 0
	movl	-8(%ebp), %eax
	movl	%eax, (%esp)
	call	intFromUInt
	movl	20(%ebp), %edx
	movl	%eax, (%edx)
	.loc 1 116 0
	leave
	.cfi_restore 5
.LCFI32:
	.cfi_def_cfa 4, 4
	ret
	.cfi_endproc
.LFE10:
	.size	longToTwoInts, .-longToTwoInts
	.type	doubleFromTwoUInts, @function
doubleFromTwoUInts:
.LFB11:
	.loc 1 117 0
	.cfi_startproc
	pushl	%ebp
.LCFI33:
	.cfi_def_cfa_offset 8
	movl	%esp, %ebp
	.cfi_offset 5, -8
.LCFI34:
	.cfi_def_cfa_register 5
	subl	$24, %esp
	.loc 1 118 0
	movl	12(%ebp), %eax
	movl	%eax, 4(%esp)
	movl	8(%ebp), %eax
	movl	%eax, (%esp)
	call	longFromTwoUInts
	movl	%eax, -8(%ebp)
	movl	%edx, -4(%ebp)
	.loc 1 119 0
	movl	-8(%ebp), %eax
	movl	-4(%ebp), %edx
	movl	%eax, (%esp)
	movl	%edx, 4(%esp)
	call	doubleFromLong
	.loc 1 120 0
	leave
	.cfi_restore 5
.LCFI35:
	.cfi_def_cfa 4, 4
	ret
	.cfi_endproc
.LFE11:
	.size	doubleFromTwoUInts, .-doubleFromTwoUInts
	.type	doubleFromTwoInts, @function
doubleFromTwoInts:
.LFB12:
	.loc 1 121 0
	.cfi_startproc
	pushl	%ebp
.LCFI36:
	.cfi_def_cfa_offset 8
	movl	%esp, %ebp
	.cfi_offset 5, -8
.LCFI37:
	.cfi_def_cfa_register 5
	pushl	%ebx
	subl	$12, %esp
	.loc 1 122 0
	movl	12(%ebp), %eax
	movl	%eax, (%esp)
	.cfi_offset 3, -12
	call	uintFromInt
	movl	%eax, %ebx
	movl	8(%ebp), %eax
	movl	%eax, (%esp)
	call	uintFromInt
	movl	%ebx, 4(%esp)
	movl	%eax, (%esp)
	call	doubleFromTwoUInts
	.loc 1 123 0
	addl	$12, %esp
	popl	%ebx
	.cfi_restore 3
	popl	%ebp
	.cfi_restore 5
.LCFI38:
	.cfi_def_cfa 4, 4
	ret
	.cfi_endproc
.LFE12:
	.size	doubleFromTwoInts, .-doubleFromTwoInts
	.type	doubleToTwoUInts, @function
doubleToTwoUInts:
.LFB13:
	.loc 1 124 0
	.cfi_startproc
	pushl	%ebp
.LCFI39:
	.cfi_def_cfa_offset 8
	movl	%esp, %ebp
	.cfi_offset 5, -8
.LCFI40:
	.cfi_def_cfa_register 5
	subl	$24, %esp
	movl	8(%ebp), %eax
	movl	%eax, -8(%ebp)
	movl	12(%ebp), %eax
	movl	%eax, -4(%ebp)
	.loc 1 125 0
	fldl	-8(%ebp)
	fstpl	(%esp)
	call	longFromDouble
	movl	20(%ebp), %ecx
	movl	%ecx, 12(%esp)
	movl	16(%ebp), %ecx
	movl	%ecx, 8(%esp)
	movl	%eax, (%esp)
	movl	%edx, 4(%esp)
	call	longToTwoUInts
	.loc 1 126 0
	leave
	.cfi_restore 5
.LCFI41:
	.cfi_def_cfa 4, 4
	ret
	.cfi_endproc
.LFE13:
	.size	doubleToTwoUInts, .-doubleToTwoUInts
	.type	doubleToTwoInts, @function
doubleToTwoInts:
.LFB14:
	.loc 1 127 0
	.cfi_startproc
	pushl	%ebp
.LCFI42:
	.cfi_def_cfa_offset 8
	movl	%esp, %ebp
	.cfi_offset 5, -8
.LCFI43:
	.cfi_def_cfa_register 5
	subl	$40, %esp
	movl	8(%ebp), %eax
	movl	%eax, -24(%ebp)
	movl	12(%ebp), %eax
	movl	%eax, -20(%ebp)
	.loc 1 129 0
	leal	-8(%ebp), %eax
	movl	%eax, 12(%esp)
	leal	-4(%ebp), %eax
	movl	%eax, 8(%esp)
	fldl	-24(%ebp)
	fstpl	(%esp)
	call	doubleToTwoUInts
	.loc 1 130 0
	movl	-4(%ebp), %eax
	movl	%eax, (%esp)
	call	intFromUInt
	movl	16(%ebp), %edx
	movl	%eax, (%edx)
	.loc 1 131 0
	movl	-8(%ebp), %eax
	movl	%eax, (%esp)
	call	intFromUInt
	movl	20(%ebp), %edx
	movl	%eax, (%edx)
	.loc 1 132 0
	leave
	.cfi_restore 5
.LCFI44:
	.cfi_def_cfa 4, 4
	ret
	.cfi_endproc
.LFE14:
	.size	doubleToTwoInts, .-doubleToTwoInts
.globl shortFromInt
	.type	shortFromInt, @function
shortFromInt:
.LFB15:
	.loc 1 135 0
	.cfi_startproc
	pushl	%ebp
.LCFI45:
	.cfi_def_cfa_offset 8
	movl	%esp, %ebp
	.cfi_offset 5, -8
.LCFI46:
	.cfi_def_cfa_register 5
	subl	$16, %esp
	.loc 1 136 0
	movl	8(%ebp), %eax
	movl	%eax, -4(%ebp)
	movzwl	-2(%ebp), %eax
	.loc 1 137 0
	leave
	.cfi_restore 5
.LCFI47:
	.cfi_def_cfa 4, 4
	ret
	.cfi_endproc
.LFE15:
	.size	shortFromInt, .-shortFromInt
	.data
	.align 4
	.type	glob, @object
	.size	glob, 4
glob:
	.long	85
	.text
	.type	add32, @function
add32:
.LFB16:
	.loc 1 147 0
	.cfi_startproc
	pushl	%ebp
.LCFI48:
	.cfi_def_cfa_offset 8
	movl	%esp, %ebp
	.cfi_offset 5, -8
.LCFI49:
	.cfi_def_cfa_register 5
	.loc 1 149 0
	movl	12(%ebp), %eax
	movl	8(%ebp), %edx
	leal	(%edx,%eax), %eax
	.loc 1 150 0
	popl	%ebp
	.cfi_restore 5
.LCFI50:
	.cfi_def_cfa 4, 4
	ret
	.cfi_endproc
.LFE16:
	.size	add32, .-add32
	.type	addU32, @function
addU32:
.LFB17:
	.loc 1 151 0
	.cfi_startproc
	pushl	%ebp
.LCFI51:
	.cfi_def_cfa_offset 8
	movl	%esp, %ebp
	.cfi_offset 5, -8
.LCFI52:
	.cfi_def_cfa_register 5
	.loc 1 153 0
	movl	12(%ebp), %eax
	movl	8(%ebp), %edx
	leal	(%edx,%eax), %eax
	.loc 1 154 0
	popl	%ebp
	.cfi_restore 5
.LCFI53:
	.cfi_def_cfa 4, 4
	ret
	.cfi_endproc
.LFE17:
	.size	addU32, .-addU32
	.type	add16, @function
add16:
.LFB18:
	.loc 1 155 0
	.cfi_startproc
	pushl	%ebp
.LCFI54:
	.cfi_def_cfa_offset 8
	movl	%esp, %ebp
	.cfi_offset 5, -8
.LCFI55:
	.cfi_def_cfa_register 5
	subl	$8, %esp
	movl	8(%ebp), %edx
	movl	12(%ebp), %eax
	movw	%dx, -4(%ebp)
	movw	%ax, -8(%ebp)
	.loc 1 155 0
	movzwl	-4(%ebp), %edx
	movzwl	-8(%ebp), %eax
	leal	(%edx,%eax), %eax
	leave
	.cfi_restore 5
.LCFI56:
	.cfi_def_cfa 4, 4
	ret
	.cfi_endproc
.LFE18:
	.size	add16, .-add16
	.type	cast32to16, @function
cast32to16:
.LFB19:
	.loc 1 156 0
	.cfi_startproc
	pushl	%ebp
.LCFI57:
	.cfi_def_cfa_offset 8
	movl	%esp, %ebp
	.cfi_offset 5, -8
.LCFI58:
	.cfi_def_cfa_register 5
	.loc 1 156 0
	movl	8(%ebp), %eax
	popl	%ebp
	.cfi_restore 5
.LCFI59:
	.cfi_def_cfa 4, 4
	ret
	.cfi_endproc
.LFE19:
	.size	cast32to16, .-cast32to16
	.section	.rodata
.LC1:
	.string	"add64 %lld + %lld \n"
	.text
	.type	add64, @function
add64:
.LFB20:
	.loc 1 157 0
	.cfi_startproc
	pushl	%ebp
.LCFI60:
	.cfi_def_cfa_offset 8
	movl	%esp, %ebp
	.cfi_offset 5, -8
.LCFI61:
	.cfi_def_cfa_register 5
	pushl	%ebx
	subl	$52, %esp
	movl	8(%ebp), %eax
	movl	%eax, -16(%ebp)
	movl	12(%ebp), %eax
	movl	%eax, -12(%ebp)
	movl	16(%ebp), %eax
	movl	%eax, -24(%ebp)
	movl	20(%ebp), %eax
	movl	%eax, -20(%ebp)
	.loc 1 158 0
	movl	$.LC1, %ecx
	movl	-24(%ebp), %eax
	movl	-20(%ebp), %edx
	movl	%eax, 12(%esp)
	movl	%edx, 16(%esp)
	movl	-16(%ebp), %eax
	movl	-12(%ebp), %edx
	movl	%eax, 4(%esp)
	movl	%edx, 8(%esp)
	movl	%ecx, (%esp)
	.cfi_offset 3, -12
	call	printf
	.loc 1 159 0
	movl	-24(%ebp), %eax
	movl	-20(%ebp), %edx
	movl	-16(%ebp), %ecx
	movl	-12(%ebp), %ebx
	addl	%ecx, %eax
	adcl	%ebx, %edx
	.loc 1 160 0
	addl	$52, %esp
	popl	%ebx
	.cfi_restore 3
	popl	%ebp
	.cfi_restore 5
.LCFI62:
	.cfi_def_cfa 4, 4
	ret
	.cfi_endproc
.LFE20:
	.size	add64, .-add64
	.section	.rodata
.LC2:
	.string	"addU64 %llu + %llu \n"
	.text
	.type	addU64, @function
addU64:
.LFB21:
	.loc 1 161 0
	.cfi_startproc
	pushl	%ebp
.LCFI63:
	.cfi_def_cfa_offset 8
	movl	%esp, %ebp
	.cfi_offset 5, -8
.LCFI64:
	.cfi_def_cfa_register 5
	pushl	%ebx
	subl	$52, %esp
	movl	8(%ebp), %eax
	movl	%eax, -16(%ebp)
	movl	12(%ebp), %eax
	movl	%eax, -12(%ebp)
	movl	16(%ebp), %eax
	movl	%eax, -24(%ebp)
	movl	20(%ebp), %eax
	movl	%eax, -20(%ebp)
	.loc 1 162 0
	movl	$.LC2, %ecx
	movl	-24(%ebp), %eax
	movl	-20(%ebp), %edx
	movl	%eax, 12(%esp)
	movl	%edx, 16(%esp)
	movl	-16(%ebp), %eax
	movl	-12(%ebp), %edx
	movl	%eax, 4(%esp)
	movl	%edx, 8(%esp)
	movl	%ecx, (%esp)
	.cfi_offset 3, -12
	call	printf
	.loc 1 163 0
	movl	-24(%ebp), %eax
	movl	-20(%ebp), %edx
	movl	-16(%ebp), %ecx
	movl	-12(%ebp), %ebx
	addl	%ecx, %eax
	adcl	%ebx, %edx
	.loc 1 164 0
	addl	$52, %esp
	popl	%ebx
	.cfi_restore 3
	popl	%ebp
	.cfi_restore 5
.LCFI65:
	.cfi_def_cfa 4, 4
	ret
	.cfi_endproc
.LFE21:
	.size	addU64, .-addU64
	.type	addFloat, @function
addFloat:
.LFB22:
	.loc 1 165 0
	.cfi_startproc
	pushl	%ebp
.LCFI66:
	.cfi_def_cfa_offset 8
	movl	%esp, %ebp
	.cfi_offset 5, -8
.LCFI67:
	.cfi_def_cfa_register 5
	subl	$20, %esp
	.loc 1 165 0
	flds	8(%ebp)
	fadds	12(%ebp)
	flds	.LC3
	faddp	%st, %st(1)
	fnstcw	-18(%ebp)
	movzwl	-18(%ebp), %eax
	movb	$12, %ah
	movw	%ax, -20(%ebp)
	fldcw	-20(%ebp)
	fistpl	-4(%ebp)
	fldcw	-18(%ebp)
	fildl	-4(%ebp)
	leave
	.cfi_restore 5
.LCFI68:
	.cfi_def_cfa 4, 4
	ret
	.cfi_endproc
.LFE22:
	.size	addFloat, .-addFloat
	.type	addDouble, @function
addDouble:
.LFB23:
	.loc 1 166 0
	.cfi_startproc
	pushl	%ebp
.LCFI69:
	.cfi_def_cfa_offset 8
	movl	%esp, %ebp
	.cfi_offset 5, -8
.LCFI70:
	.cfi_def_cfa_register 5
	subl	$16, %esp
	movl	8(%ebp), %eax
	movl	%eax, -8(%ebp)
	movl	12(%ebp), %eax
	movl	%eax, -4(%ebp)
	movl	16(%ebp), %eax
	movl	%eax, -16(%ebp)
	movl	20(%ebp), %eax
	movl	%eax, -12(%ebp)
	.loc 1 174 0
	fldl	-8(%ebp)
	faddl	-16(%ebp)
	.loc 1 175 0
	leave
	.cfi_restore 5
.LCFI71:
	.cfi_def_cfa 4, 4
	ret
	.cfi_endproc
.LFE23:
	.size	addDouble, .-addDouble
	.type	playWithDoubles, @function
playWithDoubles:
.LFB24:
	.loc 1 177 0
	.cfi_startproc
	pushl	%ebp
.LCFI72:
	.cfi_def_cfa_offset 8
	movl	%esp, %ebp
	.cfi_offset 5, -8
.LCFI73:
	.cfi_def_cfa_register 5
	subl	$40, %esp
	movl	8(%ebp), %eax
	movl	%eax, -24(%ebp)
	movl	12(%ebp), %eax
	movl	%eax, -20(%ebp)
	.loc 1 178 0
	fldl	-24(%ebp)
	fstpl	-16(%ebp)
	.loc 1 179 0
	movl	$0, -4(%ebp)
	.loc 1 180 0
	movl	$0, -4(%ebp)
	jmp	.L26
.L27:
	.loc 1 181 0 discriminator 2
	fldl	-24(%ebp)
	fmull	-24(%ebp)
	fstpl	8(%esp)
	fldl	-16(%ebp)
	fstpl	(%esp)
	call	addDouble
	fstpl	-16(%ebp)
	.loc 1 180 0 discriminator 2
	addl	$1, -4(%ebp)
.L26:
	.loc 1 180 0 is_stmt 0 discriminator 1
	cmpl	$3, -4(%ebp)
	jle	.L27
	.loc 1 183 0 is_stmt 1
	fldl	-16(%ebp)
	.loc 1 184 0
	leave
	.cfi_restore 5
.LCFI74:
	.cfi_def_cfa 4, 4
	ret
	.cfi_endproc
.LFE24:
	.size	playWithDoubles, .-playWithDoubles
	.type	playWithFloats, @function
playWithFloats:
.LFB25:
	.loc 1 185 0
	.cfi_startproc
	pushl	%ebp
.LCFI75:
	.cfi_def_cfa_offset 8
	movl	%esp, %ebp
	.cfi_offset 5, -8
.LCFI76:
	.cfi_def_cfa_register 5
	subl	$16, %esp
	.loc 1 186 0
	movl	8(%ebp), %eax
	movl	%eax, -4(%ebp)
	.loc 1 187 0
	movl	$0, -8(%ebp)
	.loc 1 188 0
	movl	$0, -8(%ebp)
	jmp	.L29
.L30:
	.loc 1 189 0 discriminator 2
	flds	8(%ebp)
	fmuls	8(%ebp)
	flds	-4(%ebp)
	faddp	%st, %st(1)
	fstps	-4(%ebp)
	.loc 1 188 0 discriminator 2
	addl	$1, -8(%ebp)
.L29:
	.loc 1 188 0 is_stmt 0 discriminator 1
	cmpl	$3, -8(%ebp)
	jle	.L30
	.loc 1 191 0 is_stmt 1
	flds	-4(%ebp)
	.loc 1 192 0
	leave
	.cfi_restore 5
.LCFI77:
	.cfi_def_cfa 4, 4
	ret
	.cfi_endproc
.LFE25:
	.size	playWithFloats, .-playWithFloats
	.type	playWithLongs, @function
playWithLongs:
.LFB26:
	.loc 1 194 0
	.cfi_startproc
	pushl	%ebp
.LCFI78:
	.cfi_def_cfa_offset 8
	movl	%esp, %ebp
	.cfi_offset 5, -8
.LCFI79:
	.cfi_def_cfa_register 5
	subl	$24, %esp
	movl	8(%ebp), %eax
	movl	%eax, -24(%ebp)
	movl	12(%ebp), %eax
	movl	%eax, -20(%ebp)
	.loc 1 195 0
	movl	glob, %eax
	subl	$30579, %eax
	movl	%eax, %edx
	sarl	$31, %edx
	addl	-24(%ebp), %eax
	adcl	-20(%ebp), %edx
	movl	%eax, -16(%ebp)
	movl	%edx, -12(%ebp)
	.loc 1 196 0
	movl	$0, -4(%ebp)
	.loc 1 197 0
	movl	$0, -4(%ebp)
	jmp	.L32
.L33:
	.loc 1 198 0 discriminator 2
	movl	-20(%ebp), %eax
	movl	%eax, %ecx
	imull	-24(%ebp), %ecx
	movl	-20(%ebp), %eax
	imull	-24(%ebp), %eax
	addl	%eax, %ecx
	movl	-24(%ebp), %eax
	mull	-24(%ebp)
	addl	%edx, %ecx
	movl	%ecx, %edx
	addl	%eax, -16(%ebp)
	adcl	%edx, -12(%ebp)
	.loc 1 197 0 discriminator 2
	addl	$1, -4(%ebp)
.L32:
	.loc 1 197 0 is_stmt 0 discriminator 1
	cmpl	$99, -4(%ebp)
	jle	.L33
	.loc 1 200 0 is_stmt 1
	movl	-16(%ebp), %eax
	movl	-12(%ebp), %edx
	.loc 1 201 0
	leave
	.cfi_restore 5
.LCFI80:
	.cfi_def_cfa 4, 4
	ret
	.cfi_endproc
.LFE26:
	.size	playWithLongs, .-playWithLongs
	.section	.rodata
	.align 4
.LC4:
	.string	"Error: %lld , should be %lld  %d / %d\n"
	.text
	.type	testLongFromUints, @function
testLongFromUints:
.LFB27:
	.loc 1 205 0
	.cfi_startproc
	pushl	%ebp
.LCFI81:
	.cfi_def_cfa_offset 8
	movl	%esp, %ebp
	.cfi_offset 5, -8
.LCFI82:
	.cfi_def_cfa_register 5
	subl	$72, %esp
	.loc 1 206 0
	movl	$-1379351218, -24(%ebp)
	movl	$100, -20(%ebp)
	.loc 1 208 0
	leal	-16(%ebp), %eax
	movl	%eax, 12(%esp)
	leal	-12(%ebp), %eax
	movl	%eax, 8(%esp)
	movl	-24(%ebp), %eax
	movl	-20(%ebp), %edx
	movl	%eax, (%esp)
	movl	%edx, 4(%esp)
	call	longToTwoUInts
	.loc 1 209 0
	movl	-16(%ebp), %edx
	movl	-12(%ebp), %eax
	movl	%edx, 4(%esp)
	movl	%eax, (%esp)
	call	longFromTwoUInts
	movl	%eax, -32(%ebp)
	movl	%edx, -28(%ebp)
	.loc 1 210 0
	movl	-32(%ebp), %eax
	movl	-28(%ebp), %edx
	movl	%edx, %ecx
	xorl	-20(%ebp), %ecx
	xorl	-24(%ebp), %eax
	orl	%ecx, %eax
	testl	%eax, %eax
	je	.L34
	.loc 1 211 0
	movl	-16(%ebp), %edx
	movl	-12(%ebp), %eax
	movl	$.LC4, %ecx
	movl	%edx, 24(%esp)
	movl	%eax, 20(%esp)
	movl	-24(%ebp), %eax
	movl	-20(%ebp), %edx
	movl	%eax, 12(%esp)
	movl	%edx, 16(%esp)
	movl	-32(%ebp), %eax
	movl	-28(%ebp), %edx
	movl	%eax, 4(%esp)
	movl	%edx, 8(%esp)
	movl	%ecx, (%esp)
	call	printf
.L34:
	.loc 1 212 0
	leave
	.cfi_restore 5
.LCFI83:
	.cfi_def_cfa 4, 4
	ret
	.cfi_endproc
.LFE27:
	.size	testLongFromUints, .-testLongFromUints
	.section	.rodata
	.align 4
.LC6:
	.string	"Error1: %f , should be %f  %d / %d\n"
	.align 4
.LC7:
	.string	"Error2: %f , should be %f  %d / %d\n"
.LC8:
	.string	"Error3:"
.LC9:
	.string	"Error4:"
	.text
	.type	testDoubleFromUint, @function
testDoubleFromUint:
.LFB28:
	.loc 1 213 0
	.cfi_startproc
	pushl	%ebp
.LCFI84:
	.cfi_def_cfa_offset 8
	movl	%esp, %ebp
	.cfi_offset 5, -8
.LCFI85:
	.cfi_def_cfa_register 5
	subl	$88, %esp
	.loc 1 214 0
	fldl	.LC5
	fstpl	-32(%ebp)
	.loc 1 217 0
	leal	-24(%ebp), %eax
	movl	%eax, 12(%esp)
	leal	-20(%ebp), %eax
	movl	%eax, 8(%esp)
	fldl	-32(%ebp)
	fstpl	(%esp)
	call	doubleToTwoInts
	.loc 1 218 0
	leal	-16(%ebp), %eax
	movl	%eax, 12(%esp)
	leal	-12(%ebp), %eax
	movl	%eax, 8(%esp)
	fldl	-32(%ebp)
	fstpl	(%esp)
	call	doubleToTwoUInts
	.loc 1 219 0
	movl	-24(%ebp), %edx
	movl	-20(%ebp), %eax
	movl	%edx, 4(%esp)
	movl	%eax, (%esp)
	call	doubleFromTwoInts
	fstpl	-40(%ebp)
	.loc 1 220 0
	movl	-16(%ebp), %edx
	movl	-12(%ebp), %eax
	movl	%edx, 4(%esp)
	movl	%eax, (%esp)
	call	doubleFromTwoUInts
	fstpl	-48(%ebp)
	.loc 1 221 0
	fldl	-40(%ebp)
	fldl	-32(%ebp)
	fucomip	%st(1), %st
	fstp	%st(0)
	jp	.L43
	fldl	-40(%ebp)
	fldl	-32(%ebp)
	fucomip	%st(1), %st
	fstp	%st(0)
	je	.L37
.L43:
	.loc 1 222 0
	movl	-24(%ebp), %ecx
	movl	-20(%ebp), %edx
	movl	$.LC6, %eax
	movl	%ecx, 24(%esp)
	movl	%edx, 20(%esp)
	fldl	-32(%ebp)
	fstpl	12(%esp)
	fldl	-40(%ebp)
	fstpl	4(%esp)
	movl	%eax, (%esp)
	call	printf
.L37:
	.loc 1 223 0
	fldl	-48(%ebp)
	fldl	-32(%ebp)
	fucomip	%st(1), %st
	fstp	%st(0)
	jp	.L44
	fldl	-48(%ebp)
	fldl	-32(%ebp)
	fucomip	%st(1), %st
	fstp	%st(0)
	je	.L39
.L44:
	.loc 1 224 0
	movl	-16(%ebp), %ecx
	movl	-12(%ebp), %edx
	movl	$.LC7, %eax
	movl	%ecx, 24(%esp)
	movl	%edx, 20(%esp)
	fldl	-32(%ebp)
	fstpl	12(%esp)
	fldl	-48(%ebp)
	fstpl	4(%esp)
	movl	%eax, (%esp)
	call	printf
.L39:
	.loc 1 226 0
	movl	$-8730, -20(%ebp)
	.loc 1 227 0
	movl	-20(%ebp), %eax
	movl	%eax, -16(%ebp)
	.loc 1 228 0
	movl	-20(%ebp), %eax
	movl	%eax, (%esp)
	call	uintFromInt
	movl	-20(%ebp), %edx
	cmpl	%edx, %eax
	setne	%al
	movzbl	%al, %eax
	movl	%eax, (%esp)
	call	intFromUInt
	testl	%eax, %eax
	je	.L41
	.loc 1 229 0
	movl	$.LC8, (%esp)
	call	puts
.L41:
	.loc 1 230 0
	movl	-16(%ebp), %eax
	movl	%eax, (%esp)
	call	intFromUInt
	movl	%eax, %edx
	movl	-16(%ebp), %eax
	cmpl	%eax, %edx
	setne	%al
	movzbl	%al, %eax
	movl	%eax, (%esp)
	call	uintFromInt
	testl	%eax, %eax
	je	.L36
	.loc 1 231 0
	movl	$.LC9, (%esp)
	call	puts
.L36:
	.loc 1 233 0
	leave
	.cfi_restore 5
.LCFI86:
	.cfi_def_cfa 4, 4
	ret
	.cfi_endproc
.LFE28:
	.size	testDoubleFromUint, .-testDoubleFromUint
	.section	.rodata
.LC10:
	.string	"res2= %d"
.LC14:
	.string	"float: %f \n"
.LC16:
	.string	"double: %f \n"
.LC18:
	.string	"long: %lld \n"
	.text
.globl main1
	.type	main1, @function
main1:
.LFB29:
	.loc 1 235 0
	.cfi_startproc
	pushl	%ebp
.LCFI87:
	.cfi_def_cfa_offset 8
	movl	%esp, %ebp
	.cfi_offset 5, -8
.LCFI88:
	.cfi_def_cfa_register 5
	subl	$72, %esp
	.loc 1 237 0
	movl	$1685159, -16(%ebp)
	.loc 1 238 0
	movl	$0, -20(%ebp)
	.loc 1 239 0
	movb	$5, -9(%ebp)
	.loc 1 241 0
	movl	$0, -20(%ebp)
	jmp	.L46
.L47:
	.loc 1 242 0 discriminator 2
	movl	-16(%ebp), %eax
	imull	$119, %eax, %eax
	movl	%eax, -16(%ebp)
	.loc 1 243 0 discriminator 2
	movl	-16(%ebp), %eax
	addl	%eax, %eax
	addl	%eax, -16(%ebp)
	.loc 1 241 0 discriminator 2
	addl	$1, -20(%ebp)
.L46:
	.loc 1 241 0 is_stmt 0 discriminator 1
	cmpl	$4, -20(%ebp)
	jle	.L47
	.loc 1 247 0 is_stmt 1
	movsbl	-9(%ebp), %eax
	movl	-16(%ebp), %edx
	imull	%edx, %eax
	movl	%eax, -16(%ebp)
	.loc 1 248 0
	movl	$715827882, -24(%ebp)
	.loc 1 249 0
	movl	$0, -20(%ebp)
	jmp	.L48
.L49:
	.loc 1 250 0 discriminator 2
	movl	-24(%ebp), %eax
	addl	%eax, -16(%ebp)
	.loc 1 249 0 discriminator 2
	addl	$1, -20(%ebp)
.L48:
	.loc 1 249 0 is_stmt 0 discriminator 1
	cmpl	$19, -20(%ebp)
	jle	.L49
	.loc 1 252 0 is_stmt 1
	movl	$145, 4(%esp)
	movl	$32759, (%esp)
	call	add16
	cwtl
	movl	%eax, -16(%ebp)
	.loc 1 253 0
	movl	$493447, (%esp)
	call	cast32to16
	movw	%ax, -12(%ebp)
	.loc 1 254 0
	movswl	-12(%ebp), %edx
	movl	$.LC10, %eax
	movl	%edx, 4(%esp)
	movl	%eax, (%esp)
	call	printf
	.loc 1 256 0
	movl	$2147483643, -28(%ebp)
	movl	$8, -32(%ebp)
	movl	-32(%ebp), %eax
	movl	%eax, 4(%esp)
	movl	-28(%ebp), %eax
	movl	%eax, (%esp)
	call	add32
	movl	%eax, -32(%ebp)
	.loc 1 257 0
	movl	$-5, -48(%ebp)
	movl	$2147483647, -44(%ebp)
	movl	$8, -56(%ebp)
	movl	$0, -52(%ebp)
	movl	-56(%ebp), %eax
	movl	-52(%ebp), %edx
	movl	%eax, 8(%esp)
	movl	%edx, 12(%esp)
	movl	-48(%ebp), %eax
	movl	-44(%ebp), %edx
	movl	%eax, (%esp)
	movl	%edx, 4(%esp)
	call	add64
	movl	%eax, -56(%ebp)
	movl	%edx, -52(%ebp)
	.loc 1 258 0
	movl	$0x7f7fffff, %eax
	movl	%eax, -36(%ebp)
	movl	$0x7f7fffff, %eax
	movl	%eax, -40(%ebp)
	movl	-40(%ebp), %eax
	movl	%eax, 4(%esp)
	movl	-36(%ebp), %eax
	movl	%eax, (%esp)
	call	addFloat
	fstps	-40(%ebp)
	.loc 1 260 0
	movl	-36(%ebp), %eax
	movl	%eax, (%esp)
	call	__isnanf
	testl	%eax, %eax
	je	.L50
	.loc 1 260 0 is_stmt 0 discriminator 1
	movl	$0x00000000, %eax
	movl	%eax, -36(%ebp)
.L50:
	.loc 1 262 0 is_stmt 1
	movl	$0x40000000, %eax
	movl	%eax, (%esp)
	call	playWithFloats
	movl	$.LC14, %eax
	fstpl	4(%esp)
	movl	%eax, (%esp)
	call	printf
	.loc 1 263 0
	fldl	.LC15
	fstpl	(%esp)
	call	playWithDoubles
	movl	$.LC16, %eax
	fstpl	4(%esp)
	movl	%eax, (%esp)
	call	printf
	.loc 1 264 0
	fldl	.LC17
	fstpl	(%esp)
	call	playWithDoubles
	movl	$.LC16, %eax
	fstpl	4(%esp)
	movl	%eax, (%esp)
	call	printf
	.loc 1 265 0
	movl	$2, (%esp)
	movl	$0, 4(%esp)
	call	playWithLongs
	movl	$.LC18, %ecx
	movl	%eax, 4(%esp)
	movl	%edx, 8(%esp)
	movl	%ecx, (%esp)
	call	printf
	.loc 1 267 0
	movl	$0, %eax
	.loc 1 268 0
	leave
	.cfi_restore 5
.LCFI89:
	.cfi_def_cfa 4, 4
	ret
	.cfi_endproc
.LFE29:
	.size	main1, .-main1
	.type	ulp, @function
ulp:
.LFB30:
	.loc 1 271 0
	.cfi_startproc
	pushl	%ebp
.LCFI90:
	.cfi_def_cfa_offset 8
	movl	%esp, %ebp
	.cfi_offset 5, -8
.LCFI91:
	.cfi_def_cfa_register 5
	subl	$40, %esp
	movl	8(%ebp), %eax
	movl	%eax, -16(%ebp)
	movl	12(%ebp), %eax
	movl	%eax, -12(%ebp)
	.loc 1 272 0
	fldl	.LC19
	fstpl	8(%esp)
	fldl	-16(%ebp)
	fstpl	(%esp)
	call	nextafter
	fsubl	-16(%ebp)
	fabs
	.loc 1 273 0
	leave
	.cfi_restore 5
.LCFI92:
	.cfi_def_cfa 4, 4
	ret
	.cfi_endproc
.LFE30:
	.size	ulp, .-ulp
	.type	ulpf, @function
ulpf:
.LFB31:
	.loc 1 274 0
	.cfi_startproc
	pushl	%ebp
.LCFI93:
	.cfi_def_cfa_offset 8
	movl	%esp, %ebp
	.cfi_offset 5, -8
.LCFI94:
	.cfi_def_cfa_register 5
	subl	$24, %esp
	.loc 1 275 0
	movl	$0x7f800000, %eax
	movl	%eax, 4(%esp)
	movl	8(%ebp), %eax
	movl	%eax, (%esp)
	call	nextafterf
	fsubs	8(%ebp)
	fabs
	.loc 1 276 0
	leave
	.cfi_restore 5
.LCFI95:
	.cfi_def_cfa 4, 4
	ret
	.cfi_endproc
.LFE31:
	.size	ulpf, .-ulpf
	.type	susp_comp_double, @function
susp_comp_double:
.LFB32:
	.loc 1 279 0
	.cfi_startproc
	pushl	%ebp
.LCFI96:
	.cfi_def_cfa_offset 8
	movl	%esp, %ebp
	.cfi_offset 5, -8
.LCFI97:
	.cfi_def_cfa_register 5
	subl	$88, %esp
	.loc 1 280 0
	fldl	.LC21
	fstpl	-16(%ebp)
	fldl	.LC22
	fstpl	-24(%ebp)
	fldl	.LC23
	fstpl	-32(%ebp)
	fldl	.LC19
	fstpl	-40(%ebp)
	fldl	.LC24
	fstpl	-48(%ebp)
	fldz
	fstpl	-56(%ebp)
	.loc 1 281 0
	fldz
	fstpl	-64(%ebp)
	.loc 1 282 0
	fldl	-16(%ebp)
	faddl	-24(%ebp)
	fstpl	-64(%ebp)
	.loc 1 283 0
	fldl	-32(%ebp)
	fadd	%st(0), %st
	fstpl	-64(%ebp)
	.loc 1 284 0
	fldl	-16(%ebp)
	fsubl	-24(%ebp)
	fstpl	-64(%ebp)
	.loc 1 285 0
	fldl	-40(%ebp)
	fdivl	-40(%ebp)
	fstpl	-64(%ebp)
	.loc 1 286 0
	fldl	-16(%ebp)
	fdivl	-56(%ebp)
	fstpl	-64(%ebp)
	.loc 1 287 0
	fldl	-24(%ebp)
	fdivl	-56(%ebp)
	fstpl	-64(%ebp)
	.loc 1 288 0
	fldl	-56(%ebp)
	fdivl	-56(%ebp)
	fstpl	-64(%ebp)
	.loc 1 289 0
	fldl	-16(%ebp)
	fstpl	(%esp)
	call	ulp
	fsubl	-16(%ebp)
	faddl	-16(%ebp)
	fstpl	-64(%ebp)
	.loc 1 290 0
	fldl	-16(%ebp)
	fstpl	-64(%ebp)
	.loc 1 291 0
	fldl	.LC26
	fstpl	-64(%ebp)
	.loc 1 292 0
	leave
	.cfi_restore 5
.LCFI98:
	.cfi_def_cfa 4, 4
	ret
	.cfi_endproc
.LFE32:
	.size	susp_comp_double, .-susp_comp_double
	.type	susp_comp_float, @function
susp_comp_float:
.LFB33:
	.loc 1 294 0
	.cfi_startproc
	pushl	%ebp
.LCFI99:
	.cfi_def_cfa_offset 8
	movl	%esp, %ebp
	.cfi_offset 5, -8
.LCFI100:
	.cfi_def_cfa_register 5
	subl	$88, %esp
	.loc 1 295 0
	movl	$0x7f800000, %eax
	movl	%eax, -12(%ebp)
	movl	$0x00000010, %eax
	movl	%eax, -16(%ebp)
	movl	$0x7f7fffff, %eax
	movl	%eax, -20(%ebp)
	movl	$0x7f800000, %eax
	movl	%eax, -24(%ebp)
	movl	$0x7fc00000, %eax
	movl	%eax, -28(%ebp)
	movl	$0x00000000, %eax
	movl	%eax, -32(%ebp)
	.loc 1 296 0
	movl	$0x00000000, %eax
	movl	%eax, -36(%ebp)
	.loc 1 297 0
	flds	-12(%ebp)
	fadds	-16(%ebp)
	fstps	-36(%ebp)
	.loc 1 298 0
	flds	-20(%ebp)
	fadd	%st(0), %st
	fstps	-36(%ebp)
	.loc 1 299 0
	flds	-12(%ebp)
	fsubs	-16(%ebp)
	fstps	-36(%ebp)
	.loc 1 300 0
	flds	-24(%ebp)
	fdivs	-24(%ebp)
	fstps	-36(%ebp)
	.loc 1 301 0
	flds	-12(%ebp)
	fdivs	-32(%ebp)
	fstps	-36(%ebp)
	.loc 1 302 0
	flds	-16(%ebp)
	fdivs	-32(%ebp)
	fstps	-36(%ebp)
	.loc 1 303 0
	flds	-32(%ebp)
	fdivs	-32(%ebp)
	fstps	-36(%ebp)
	.loc 1 304 0
	flds	-12(%ebp)
	fstpl	-56(%ebp)
	flds	-12(%ebp)
	fchs
	fstpl	-64(%ebp)
	movl	-12(%ebp), %eax
	movl	%eax, (%esp)
	call	ulpf
	faddl	-64(%ebp)
	faddl	-56(%ebp)
	fstps	-36(%ebp)
	.loc 1 305 0
	movl	-12(%ebp), %eax
	movl	%eax, -36(%ebp)
	.loc 1 306 0
	movl	$0x40500000, %eax
	movl	%eax, -36(%ebp)
	.loc 1 307 0
	leave
	.cfi_restore 5
.LCFI101:
	.cfi_def_cfa 4, 4
	ret
	.cfi_endproc
.LFE33:
	.size	susp_comp_float, .-susp_comp_float
	.type	susp_comp_int, @function
susp_comp_int:
.LFB34:
	.loc 1 309 0
	.cfi_startproc
	pushl	%ebp
.LCFI102:
	.cfi_def_cfa_offset 8
	movl	%esp, %ebp
	.cfi_offset 5, -8
.LCFI103:
	.cfi_def_cfa_register 5
	subl	$16, %esp
	.loc 1 310 0
	movl	$2147483647, -4(%ebp)
	movl	$-2147483648, -8(%ebp)
	movl	$-1, -12(%ebp)
	.loc 1 311 0
	movl	$0, -16(%ebp)
	.loc 1 312 0
	movl	-4(%ebp), %eax
	addl	%eax, %eax
	movl	%eax, -16(%ebp)
	.loc 1 313 0
	movl	-4(%ebp), %eax
	imull	-4(%ebp), %eax
	movl	%eax, -16(%ebp)
	.loc 1 314 0
	movl	-8(%ebp), %eax
	negl	%eax
	movl	%eax, -16(%ebp)
	.loc 1 315 0
	movl	-8(%ebp), %eax
	imull	-12(%ebp), %eax
	movl	%eax, -16(%ebp)
	.loc 1 318 0
	movl	-8(%ebp), %eax
	movl	-4(%ebp), %edx
	movl	%edx, %ecx
	subl	%eax, %ecx
	movl	%ecx, %eax
	movl	%eax, -16(%ebp)
	.loc 1 319 0
	leave
	.cfi_restore 5
.LCFI104:
	.cfi_def_cfa 4, 4
	ret
	.cfi_endproc
.LFE34:
	.size	susp_comp_int, .-susp_comp_int
	.type	susp_comp_Long, @function
susp_comp_Long:
.LFB35:
	.loc 1 321 0
	.cfi_startproc
	pushl	%ebp
.LCFI105:
	.cfi_def_cfa_offset 8
	movl	%esp, %ebp
	.cfi_offset 5, -8
.LCFI106:
	.cfi_def_cfa_register 5
	pushl	%ebx
	subl	$36, %esp
	.loc 1 322 0
	movl	$2147483647, -16(%ebp)
	movl	$0, -12(%ebp)
	movl	$-2147483648, -24(%ebp)
	movl	$-1, -20(%ebp)
	movl	$-1, -32(%ebp)
	movl	$-1, -28(%ebp)
	.loc 1 323 0
	movl	$0, -40(%ebp)
	movl	$0, -36(%ebp)
	.loc 1 324 0
	movl	-16(%ebp), %eax
	movl	-12(%ebp), %edx
	addl	%eax, %eax
	adcl	%edx, %edx
	movl	%eax, -40(%ebp)
	movl	%edx, -36(%ebp)
	.loc 1 325 0
	movl	-12(%ebp), %eax
	movl	%eax, %ecx
	imull	-16(%ebp), %ecx
	movl	-12(%ebp), %eax
	imull	-16(%ebp), %eax
	addl	%eax, %ecx
	movl	-16(%ebp), %eax
	mull	-16(%ebp)
	addl	%edx, %ecx
	movl	%ecx, %edx
	movl	%eax, -40(%ebp)
	movl	%edx, -36(%ebp)
	movl	%eax, -40(%ebp)
	movl	%edx, -36(%ebp)
	.loc 1 326 0
	movl	-24(%ebp), %eax
	movl	-20(%ebp), %edx
	negl	%eax
	adcl	$0, %edx
	negl	%edx
	movl	%eax, -40(%ebp)
	movl	%edx, -36(%ebp)
	.loc 1 327 0
	movl	-20(%ebp), %eax
	movl	%eax, %ecx
	imull	-32(%ebp), %ecx
	movl	-28(%ebp), %eax
	imull	-24(%ebp), %eax
	addl	%eax, %ecx
	movl	-32(%ebp), %eax
	mull	-24(%ebp)
	addl	%edx, %ecx
	movl	%ecx, %edx
	movl	%eax, -40(%ebp)
	movl	%edx, -36(%ebp)
	movl	%eax, -40(%ebp)
	movl	%edx, -36(%ebp)
	.loc 1 328 0
	movl	-24(%ebp), %ecx
	movl	-20(%ebp), %ebx
	.cfi_offset 3, -12
	movl	-16(%ebp), %eax
	movl	-12(%ebp), %edx
	subl	%ecx, %eax
	sbbl	%ebx, %edx
	movl	%eax, -40(%ebp)
	movl	%edx, -36(%ebp)
	.loc 1 329 0
	addl	$36, %esp
	popl	%ebx
	.cfi_restore 3
	popl	%ebp
	.cfi_restore 5
.LCFI107:
	.cfi_def_cfa 4, 4
	ret
	.cfi_endproc
.LFE35:
	.size	susp_comp_Long, .-susp_comp_Long
	.type	susp_comp_short, @function
susp_comp_short:
.LFB36:
	.loc 1 331 0
	.cfi_startproc
	pushl	%ebp
.LCFI108:
	.cfi_def_cfa_offset 8
	movl	%esp, %ebp
	.cfi_offset 5, -8
.LCFI109:
	.cfi_def_cfa_register 5
	subl	$24, %esp
	.loc 1 333 0
	movw	$32767, -2(%ebp)
	movw	$-32768, -4(%ebp)
	.loc 1 334 0
	movl	$0, -8(%ebp)
	.loc 1 335 0
	movswl	-2(%ebp), %edx
	movswl	-2(%ebp), %eax
	movl	%edx, 4(%esp)
	movl	%eax, (%esp)
	call	add16
	cwtl
	movl	%eax, -8(%ebp)
	.loc 1 336 0
	movswl	-2(%ebp), %edx
	movswl	-2(%ebp), %eax
	imull	%edx, %eax
	movl	%eax, -8(%ebp)
	.loc 1 337 0
	movswl	-4(%ebp), %eax
	negl	%eax
	movl	%eax, -8(%ebp)
	.loc 1 338 0
	movswl	-2(%ebp), %edx
	movswl	-4(%ebp), %eax
	movl	%edx, %ecx
	subl	%eax, %ecx
	movl	%ecx, %eax
	movl	%eax, -8(%ebp)
	.loc 1 339 0
	leave
	.cfi_restore 5
.LCFI110:
	.cfi_def_cfa 4, 4
	ret
	.cfi_endproc
.LFE36:
	.size	susp_comp_short, .-susp_comp_short
	.type	suspecious_computations, @function
suspecious_computations:
.LFB37:
	.loc 1 341 0
	.cfi_startproc
	pushl	%ebp
.LCFI111:
	.cfi_def_cfa_offset 8
	movl	%esp, %ebp
	.cfi_offset 5, -8
.LCFI112:
	.cfi_def_cfa_register 5
	subl	$8, %esp
	.loc 1 342 0
	call	susp_comp_double
	.loc 1 343 0
	call	susp_comp_float
	.loc 1 344 0
	call	susp_comp_int
	.loc 1 345 0
	call	susp_comp_Long
	.loc 1 346 0
	call	susp_comp_short
	.loc 1 347 0
	leave
	.cfi_restore 5
.LCFI113:
	.cfi_def_cfa 4, 4
	ret
	.cfi_endproc
.LFE37:
	.size	suspecious_computations, .-suspecious_computations
	.type	norm_comp_double, @function
norm_comp_double:
.LFB38:
	.loc 1 350 0
	.cfi_startproc
	pushl	%ebp
.LCFI114:
	.cfi_def_cfa_offset 8
	movl	%esp, %ebp
	.cfi_offset 5, -8
.LCFI115:
	.cfi_def_cfa_register 5
	subl	$80, %esp
	.loc 1 351 0
	fldl	.LC21
	fstpl	-8(%ebp)
	fldl	.LC22
	fstpl	-16(%ebp)
	fldl	.LC23
	fstpl	-24(%ebp)
	fldl	.LC19
	fstpl	-32(%ebp)
	fldl	.LC24
	fstpl	-40(%ebp)
	fldz
	fstpl	-48(%ebp)
	fldl	.LC29
	fstpl	-56(%ebp)
	.loc 1 352 0
	fldz
	fstpl	-64(%ebp)
	.loc 1 354 0
	fldl	.LC30
	fstpl	-72(%ebp)
	fldl	.LC31
	fstpl	-80(%ebp)
	.loc 1 355 0
	fldl	-72(%ebp)
	fmull	-80(%ebp)
	fstpl	-64(%ebp)
	.loc 1 356 0
	fldl	-72(%ebp)
	fsubl	-80(%ebp)
	fstpl	-64(%ebp)
	.loc 1 357 0
	fldl	-72(%ebp)
	faddl	-80(%ebp)
	fstpl	-64(%ebp)
	.loc 1 358 0
	fldl	-72(%ebp)
	fdivl	-80(%ebp)
	fstpl	-64(%ebp)
	.loc 1 360 0
	fldl	-8(%ebp)
	fadd	%st(0), %st
	fstpl	-64(%ebp)
	.loc 1 361 0
	fldl	-16(%ebp)
	fadd	%st(0), %st
	fstpl	-64(%ebp)
	.loc 1 362 0
	fldl	-24(%ebp)
	fsubl	-24(%ebp)
	fstpl	-64(%ebp)
	.loc 1 363 0
	fldl	-24(%ebp)
	fdivl	-24(%ebp)
	fstpl	-64(%ebp)
	.loc 1 364 0
	fldl	-56(%ebp)
	fmull	-56(%ebp)
	fstpl	-64(%ebp)
	.loc 1 365 0
	leave
	.cfi_restore 5
.LCFI116:
	.cfi_def_cfa 4, 4
	ret
	.cfi_endproc
.LFE38:
	.size	norm_comp_double, .-norm_comp_double
	.type	norm_comp_float, @function
norm_comp_float:
.LFB39:
	.loc 1 367 0
	.cfi_startproc
	pushl	%ebp
.LCFI117:
	.cfi_def_cfa_offset 8
	movl	%esp, %ebp
	.cfi_offset 5, -8
.LCFI118:
	.cfi_def_cfa_register 5
	subl	$32, %esp
	.loc 1 368 0
	movl	$0x58886c99, %eax
	movl	%eax, -4(%ebp)
	movl	$0x28cf2a64, %eax
	movl	%eax, -8(%ebp)
	movl	$0x7f7fffff, %eax
	movl	%eax, -12(%ebp)
	movl	$0x7f800000, %eax
	movl	%eax, -16(%ebp)
	movl	$0x7fc00000, %eax
	movl	%eax, -20(%ebp)
	movl	$0x00000000, %eax
	movl	%eax, -24(%ebp)
	movl	$0x4048f5c3, %eax
	movl	%eax, -28(%ebp)
	.loc 1 369 0
	movl	$0x00000000, %eax
	movl	%eax, -32(%ebp)
	.loc 1 370 0
	flds	-4(%ebp)
	fadd	%st(0), %st
	fstps	-32(%ebp)
	.loc 1 371 0
	flds	-8(%ebp)
	fadd	%st(0), %st
	fstps	-32(%ebp)
	.loc 1 372 0
	flds	-12(%ebp)
	fsubs	-12(%ebp)
	fstps	-32(%ebp)
	.loc 1 373 0
	flds	-12(%ebp)
	fdivs	-12(%ebp)
	fstps	-32(%ebp)
	.loc 1 374 0
	flds	-28(%ebp)
	fmuls	-28(%ebp)
	fstps	-32(%ebp)
	.loc 1 375 0
	leave
	.cfi_restore 5
.LCFI119:
	.cfi_def_cfa 4, 4
	ret
	.cfi_endproc
.LFE39:
	.size	norm_comp_float, .-norm_comp_float
	.type	norm_comp_int, @function
norm_comp_int:
.LFB40:
	.loc 1 377 0
	.cfi_startproc
	pushl	%ebp
.LCFI120:
	.cfi_def_cfa_offset 8
	movl	%esp, %ebp
	.cfi_offset 5, -8
.LCFI121:
	.cfi_def_cfa_register 5
	subl	$32, %esp
	.loc 1 379 0
	movl	$3, -4(%ebp)
	movl	$5, -8(%ebp)
	movl	$0, -12(%ebp)
	.loc 1 380 0
	movl	-4(%ebp), %eax
	imull	-8(%ebp), %eax
	movl	%eax, -12(%ebp)
	.loc 1 381 0
	movl	-8(%ebp), %eax
	movl	-4(%ebp), %edx
	leal	(%edx,%eax), %eax
	movl	%eax, -12(%ebp)
	.loc 1 382 0
	movl	-8(%ebp), %eax
	movl	-4(%ebp), %edx
	movl	%edx, %ecx
	subl	%eax, %ecx
	movl	%ecx, %eax
	movl	%eax, -12(%ebp)
	.loc 1 383 0
	movl	-4(%ebp), %eax
	movl	%eax, %edx
	sarl	$31, %edx
	idivl	-8(%ebp)
	movl	%eax, -12(%ebp)
	.loc 1 384 0
	movl	-4(%ebp), %eax
	movl	%eax, %edx
	sarl	$31, %edx
	idivl	-8(%ebp)
	movl	%edx, -12(%ebp)
	.loc 1 387 0
	movl	$3, -16(%ebp)
	movl	$5, -20(%ebp)
	movl	$0, -24(%ebp)
	.loc 1 388 0
	movl	-16(%ebp), %eax
	imull	-20(%ebp), %eax
	movl	%eax, -24(%ebp)
	.loc 1 389 0
	movl	-20(%ebp), %eax
	movl	-16(%ebp), %edx
	leal	(%edx,%eax), %eax
	movl	%eax, -24(%ebp)
	.loc 1 390 0
	movl	-20(%ebp), %eax
	movl	-16(%ebp), %edx
	movl	%edx, %ecx
	subl	%eax, %ecx
	movl	%ecx, %eax
	movl	%eax, -24(%ebp)
	.loc 1 391 0
	movl	-16(%ebp), %eax
	movl	$0, %edx
	divl	-20(%ebp)
	movl	%eax, -24(%ebp)
	.loc 1 392 0
	movl	-16(%ebp), %eax
	movl	$0, %edx
	divl	-20(%ebp)
	movl	%edx, -24(%ebp)
	.loc 1 393 0
	leave
	.cfi_restore 5
.LCFI122:
	.cfi_def_cfa 4, 4
	ret
	.cfi_endproc
.LFE40:
	.size	norm_comp_int, .-norm_comp_int
.globl __divdi3
.globl __moddi3
.globl __udivdi3
.globl __umoddi3
	.type	norm_comp_long, @function
norm_comp_long:
.LFB41:
	.loc 1 395 0
	.cfi_startproc
	pushl	%ebp
.LCFI123:
	.cfi_def_cfa_offset 8
	movl	%esp, %ebp
	.cfi_offset 5, -8
.LCFI124:
	.cfi_def_cfa_register 5
	pushl	%ebx
	subl	$68, %esp
	.loc 1 397 0
	movl	$3, -16(%ebp)
	movl	$0, -12(%ebp)
	movl	$5, -24(%ebp)
	movl	$0, -20(%ebp)
	movl	$0, -32(%ebp)
	movl	$0, -28(%ebp)
	.loc 1 398 0
	movl	-12(%ebp), %eax
	movl	%eax, %ecx
	imull	-24(%ebp), %ecx
	movl	-20(%ebp), %eax
	imull	-16(%ebp), %eax
	addl	%eax, %ecx
	movl	-24(%ebp), %eax
	mull	-16(%ebp)
	addl	%edx, %ecx
	movl	%ecx, %edx
	movl	%eax, -32(%ebp)
	movl	%edx, -28(%ebp)
	movl	%eax, -32(%ebp)
	movl	%edx, -28(%ebp)
	.loc 1 399 0
	movl	-24(%ebp), %eax
	movl	-20(%ebp), %edx
	movl	-16(%ebp), %ecx
	movl	-12(%ebp), %ebx
	.cfi_offset 3, -12
	addl	%ecx, %eax
	adcl	%ebx, %edx
	movl	%eax, -32(%ebp)
	movl	%edx, -28(%ebp)
	.loc 1 400 0
	movl	-24(%ebp), %ecx
	movl	-20(%ebp), %ebx
	movl	-16(%ebp), %eax
	movl	-12(%ebp), %edx
	subl	%ecx, %eax
	sbbl	%ebx, %edx
	movl	%eax, -32(%ebp)
	movl	%edx, -28(%ebp)
	.loc 1 401 0
	movl	-24(%ebp), %eax
	movl	-20(%ebp), %edx
	movl	%eax, 8(%esp)
	movl	%edx, 12(%esp)
	movl	-16(%ebp), %eax
	movl	-12(%ebp), %edx
	movl	%eax, (%esp)
	movl	%edx, 4(%esp)
	call	__divdi3
	movl	%eax, -32(%ebp)
	movl	%edx, -28(%ebp)
	.loc 1 402 0
	movl	-16(%ebp), %eax
	movl	-12(%ebp), %edx
	movl	-24(%ebp), %ecx
	movl	-20(%ebp), %ebx
	movl	%ecx, 8(%esp)
	movl	%ebx, 12(%esp)
	movl	%eax, (%esp)
	movl	%edx, 4(%esp)
	call	__moddi3
	movl	%eax, -32(%ebp)
	movl	%edx, -28(%ebp)
	.loc 1 405 0
	movl	$3, -40(%ebp)
	movl	$0, -36(%ebp)
	movl	$5, -48(%ebp)
	movl	$0, -44(%ebp)
	movl	$0, -56(%ebp)
	movl	$0, -52(%ebp)
	.loc 1 406 0
	movl	-36(%ebp), %eax
	movl	%eax, %ecx
	imull	-48(%ebp), %ecx
	movl	-44(%ebp), %eax
	imull	-40(%ebp), %eax
	addl	%eax, %ecx
	movl	-48(%ebp), %eax
	mull	-40(%ebp)
	addl	%edx, %ecx
	movl	%ecx, %edx
	movl	%eax, -56(%ebp)
	movl	%edx, -52(%ebp)
	movl	%eax, -56(%ebp)
	movl	%edx, -52(%ebp)
	.loc 1 407 0
	movl	-48(%ebp), %eax
	movl	-44(%ebp), %edx
	movl	-40(%ebp), %ecx
	movl	-36(%ebp), %ebx
	addl	%ecx, %eax
	adcl	%ebx, %edx
	movl	%eax, -56(%ebp)
	movl	%edx, -52(%ebp)
	.loc 1 408 0
	movl	-48(%ebp), %ecx
	movl	-44(%ebp), %ebx
	movl	-40(%ebp), %eax
	movl	-36(%ebp), %edx
	subl	%ecx, %eax
	sbbl	%ebx, %edx
	movl	%eax, -56(%ebp)
	movl	%edx, -52(%ebp)
	.loc 1 409 0
	movl	-48(%ebp), %eax
	movl	-44(%ebp), %edx
	movl	%eax, 8(%esp)
	movl	%edx, 12(%esp)
	movl	-40(%ebp), %eax
	movl	-36(%ebp), %edx
	movl	%eax, (%esp)
	movl	%edx, 4(%esp)
	call	__udivdi3
	movl	%eax, -56(%ebp)
	movl	%edx, -52(%ebp)
	.loc 1 410 0
	movl	-40(%ebp), %eax
	movl	-36(%ebp), %edx
	movl	-48(%ebp), %ecx
	movl	-44(%ebp), %ebx
	movl	%ecx, 8(%esp)
	movl	%ebx, 12(%esp)
	movl	%eax, (%esp)
	movl	%edx, 4(%esp)
	call	__umoddi3
	movl	%eax, -56(%ebp)
	movl	%edx, -52(%ebp)
	.loc 1 412 0
	addl	$68, %esp
	popl	%ebx
	.cfi_restore 3
	popl	%ebp
	.cfi_restore 5
.LCFI125:
	.cfi_def_cfa 4, 4
	ret
	.cfi_endproc
.LFE41:
	.size	norm_comp_long, .-norm_comp_long
	.type	norm_comp_short, @function
norm_comp_short:
.LFB42:
	.loc 1 413 0
	.cfi_startproc
	pushl	%ebp
.LCFI126:
	.cfi_def_cfa_offset 8
	movl	%esp, %ebp
	.cfi_offset 5, -8
.LCFI127:
	.cfi_def_cfa_register 5
	subl	$20, %esp
	.loc 1 415 0
	movw	$3, -2(%ebp)
	movw	$5, -4(%ebp)
	movw	$0, -6(%ebp)
	.loc 1 416 0
	movzwl	-2(%ebp), %edx
	movzwl	-4(%ebp), %eax
	imull	%edx, %eax
	movw	%ax, -6(%ebp)
	.loc 1 417 0
	movzwl	-2(%ebp), %edx
	movzwl	-4(%ebp), %eax
	leal	(%edx,%eax), %eax
	movw	%ax, -6(%ebp)
	.loc 1 418 0
	movzwl	-2(%ebp), %edx
	movzwl	-4(%ebp), %eax
	movl	%edx, %ecx
	subw	%ax, %cx
	movl	%ecx, %eax
	movw	%ax, -6(%ebp)
	.loc 1 419 0
	movswl	-2(%ebp), %eax
	movswl	-4(%ebp), %edx
	movl	%edx, -20(%ebp)
	movl	%eax, %edx
	sarl	$31, %edx
	idivl	-20(%ebp)
	movw	%ax, -6(%ebp)
	.loc 1 420 0
	movswl	-2(%ebp), %eax
	movswl	-4(%ebp), %ecx
	movl	%eax, %edx
	sarl	$31, %edx
	idivl	%ecx
	movl	%edx, %eax
	movw	%ax, -6(%ebp)
	.loc 1 423 0
	movw	$3, -8(%ebp)
	movw	$5, -10(%ebp)
	movw	$0, -12(%ebp)
	.loc 1 424 0
	movzwl	-8(%ebp), %eax
	imulw	-10(%ebp), %ax
	movw	%ax, -12(%ebp)
	.loc 1 425 0
	movzwl	-10(%ebp), %eax
	movzwl	-8(%ebp), %edx
	leal	(%edx,%eax), %eax
	movw	%ax, -12(%ebp)
	.loc 1 426 0
	movzwl	-10(%ebp), %eax
	movzwl	-8(%ebp), %edx
	movl	%edx, %ecx
	subw	%ax, %cx
	movl	%ecx, %eax
	movw	%ax, -12(%ebp)
	.loc 1 427 0
	movzwl	-8(%ebp), %eax
	movl	$0, %edx
	divw	-10(%ebp)
	movw	%ax, -12(%ebp)
	.loc 1 428 0
	movzwl	-8(%ebp), %eax
	movl	$0, %edx
	divw	-10(%ebp)
	movw	%dx, -12(%ebp)
	.loc 1 429 0
	leave
	.cfi_restore 5
.LCFI128:
	.cfi_def_cfa 4, 4
	ret
	.cfi_endproc
.LFE42:
	.size	norm_comp_short, .-norm_comp_short
	.type	normal_computations, @function
normal_computations:
.LFB43:
	.loc 1 432 0
	.cfi_startproc
	pushl	%ebp
.LCFI129:
	.cfi_def_cfa_offset 8
	movl	%esp, %ebp
	.cfi_offset 5, -8
.LCFI130:
	.cfi_def_cfa_register 5
	subl	$8, %esp
	.loc 1 433 0
	call	norm_comp_double
	.loc 1 434 0
	call	norm_comp_float
	.loc 1 435 0
	call	norm_comp_int
	.loc 1 436 0
	call	norm_comp_long
	.loc 1 437 0
	call	norm_comp_short
	.loc 1 438 0
	leave
	.cfi_restore 5
.LCFI131:
	.cfi_def_cfa 4, 4
	ret
	.cfi_endproc
.LFE43:
	.size	normal_computations, .-normal_computations
.globl main
	.type	main, @function
main:
.LFB44:
	.loc 1 442 0
	.cfi_startproc
	pushl	%ebp
.LCFI132:
	.cfi_def_cfa_offset 8
	movl	%esp, %ebp
	.cfi_offset 5, -8
.LCFI133:
	.cfi_def_cfa_register 5
	andl	$-16, %esp
	.loc 1 443 0
	call	suspecious_computations
	.loc 1 444 0
	call	normal_computations
	.loc 1 445 0
	movl	$0, %eax
	.loc 1 446 0
	movl	%ebp, %esp
.LCFI134:
	.cfi_def_cfa_register 4
	popl	%ebp
	.cfi_restore 5
.LCFI135:
	.cfi_def_cfa_offset 4
	ret
	.cfi_endproc
.LFE44:
	.size	main, .-main
	.section	.rodata
	.align 4
.LC3:
	.long	1190062592
	.align 8
.LC5:
	.long	1264846314
	.long	1252051187
	.align 8
.LC15:
	.long	0
	.long	1073741824
	.align 8
.LC17:
	.long	343597384
	.long	1074349998
	.align 8
.LC19:
	.long	0
	.long	2146435072
	.align 8
.LC21:
	.long	2260155377
	.long	1229645737
	.align 8
.LC22:
	.long	880792757
	.long	920676817
	.align 8
.LC23:
	.long	4294967295
	.long	2146435071
	.align 8
.LC24:
	.long	0
	.long	2146959360
	.align 8
.LC26:
	.long	0
	.long	1074397184
	.align 8
.LC29:
	.long	1374389535
	.long	1074339512
	.align 8
.LC30:
	.long	0
	.long	1078132736
	.align 8
.LC31:
	.long	0
	.long	1079132160
	.text
.Letext0:
	.section	.note.GNU-stack,"",@progbits
