	.file	"HelloCojac.c"
	.text
.Ltext0:
	.type	longFromDouble, @function
longFromDouble:
.LFB0:
	.file 1 "HelloCojac.c"
	.loc 1 71 0
	.cfi_startproc
	pushq	%rbp
.LCFI0:
	.cfi_def_cfa_offset 16
	movq	%rsp, %rbp
	.cfi_offset 6, -16
.LCFI1:
	.cfi_def_cfa_register 6
	movsd	%xmm0, -24(%rbp)
	.loc 1 72 0
	movq	-24(%rbp), %rax
	movq	%rax, -16(%rbp)
	movq	-16(%rbp), %rax
	.loc 1 73 0
	leave
.LCFI2:
	.cfi_def_cfa 7, 8
	ret
	.cfi_endproc
.LFE0:
	.size	longFromDouble, .-longFromDouble
	.type	doubleFromLong, @function
doubleFromLong:
.LFB1:
	.loc 1 74 0
	.cfi_startproc
	pushq	%rbp
.LCFI3:
	.cfi_def_cfa_offset 16
	movq	%rsp, %rbp
	.cfi_offset 6, -16
.LCFI4:
	.cfi_def_cfa_register 6
	movq	%rdi, -24(%rbp)
	.loc 1 75 0
	movq	-24(%rbp), %rax
	movq	%rax, -16(%rbp)
	movq	-16(%rbp), %rax
	movq	%rax, -40(%rbp)
	movsd	-40(%rbp), %xmm0
	.loc 1 76 0
	leave
.LCFI5:
	.cfi_def_cfa 7, 8
	ret
	.cfi_endproc
.LFE1:
	.size	doubleFromLong, .-doubleFromLong
	.type	uintFromInt, @function
uintFromInt:
.LFB2:
	.loc 1 78 0
	.cfi_startproc
	pushq	%rbp
.LCFI6:
	.cfi_def_cfa_offset 16
	movq	%rsp, %rbp
	.cfi_offset 6, -16
.LCFI7:
	.cfi_def_cfa_register 6
	movl	%edi, -20(%rbp)
	.loc 1 79 0
	movl	-20(%rbp), %eax
	movl	%eax, -16(%rbp)
	movl	-16(%rbp), %eax
	.loc 1 80 0
	leave
.LCFI8:
	.cfi_def_cfa 7, 8
	ret
	.cfi_endproc
.LFE2:
	.size	uintFromInt, .-uintFromInt
	.type	intFromUInt, @function
intFromUInt:
.LFB3:
	.loc 1 81 0
	.cfi_startproc
	pushq	%rbp
.LCFI9:
	.cfi_def_cfa_offset 16
	movq	%rsp, %rbp
	.cfi_offset 6, -16
.LCFI10:
	.cfi_def_cfa_register 6
	movl	%edi, -20(%rbp)
	.loc 1 82 0
	movl	-20(%rbp), %eax
	movl	%eax, -16(%rbp)
	movl	-16(%rbp), %eax
	.loc 1 83 0
	leave
.LCFI11:
	.cfi_def_cfa 7, 8
	ret
	.cfi_endproc
.LFE3:
	.size	intFromUInt, .-intFromUInt
	.type	floatFromInt, @function
floatFromInt:
.LFB4:
	.loc 1 84 0
	.cfi_startproc
	pushq	%rbp
.LCFI12:
	.cfi_def_cfa_offset 16
	movq	%rsp, %rbp
	.cfi_offset 6, -16
.LCFI13:
	.cfi_def_cfa_register 6
	movl	%edi, -20(%rbp)
	.loc 1 85 0
	movl	-20(%rbp), %eax
	movl	%eax, -16(%rbp)
	movl	-16(%rbp), %eax
	movl	%eax, -36(%rbp)
	movss	-36(%rbp), %xmm0
	.loc 1 86 0
	leave
.LCFI14:
	.cfi_def_cfa 7, 8
	ret
	.cfi_endproc
.LFE4:
	.size	floatFromInt, .-floatFromInt
	.type	longFromTwoUInts, @function
longFromTwoUInts:
.LFB5:
	.loc 1 88 0
	.cfi_startproc
	pushq	%rbp
.LCFI15:
	.cfi_def_cfa_offset 16
	movq	%rsp, %rbp
	.cfi_offset 6, -16
.LCFI16:
	.cfi_def_cfa_register 6
	movl	%edi, -20(%rbp)
	movl	%esi, -24(%rbp)
	.loc 1 89 0
	mov	-20(%rbp), %eax
	movq	%rax, -8(%rbp)
	.loc 1 90 0
	movq	-8(%rbp), %rax
	movq	%rax, %rdx
	salq	$32, %rdx
	mov	-24(%rbp), %eax
	orq	%rdx, %rax
	movq	%rax, -8(%rbp)
	.loc 1 91 0
	movq	-8(%rbp), %rax
	.loc 1 92 0
	leave
.LCFI17:
	.cfi_def_cfa 7, 8
	ret
	.cfi_endproc
.LFE5:
	.size	longFromTwoUInts, .-longFromTwoUInts
	.type	longFromTwoUInts_New, @function
longFromTwoUInts_New:
.LFB6:
	.loc 1 93 0
	.cfi_startproc
	pushq	%rbp
.LCFI18:
	.cfi_def_cfa_offset 16
	movq	%rsp, %rbp
	.cfi_offset 6, -16
.LCFI19:
	.cfi_def_cfa_register 6
	movl	%edi, -20(%rbp)
	movl	%esi, -24(%rbp)
	.loc 1 94 0
	movl	-20(%rbp), %eax
	movl	%eax, -12(%rbp)
	movl	-24(%rbp), %eax
	movl	%eax, -16(%rbp)
	.loc 1 95 0
	movq	-16(%rbp), %rax
	.loc 1 96 0
	leave
.LCFI20:
	.cfi_def_cfa 7, 8
	ret
	.cfi_endproc
.LFE6:
	.size	longFromTwoUInts_New, .-longFromTwoUInts_New
	.type	longFromTwoInts, @function
longFromTwoInts:
.LFB7:
	.loc 1 98 0
	.cfi_startproc
	pushq	%rbp
.LCFI21:
	.cfi_def_cfa_offset 16
	movq	%rsp, %rbp
	.cfi_offset 6, -16
.LCFI22:
	.cfi_def_cfa_register 6
	pushq	%rbx
	subq	$24, %rsp
	movl	%edi, -20(%rbp)
	movl	%esi, -24(%rbp)
	.loc 1 99 0
	movl	-24(%rbp), %eax
	movl	%eax, %edi
	.cfi_offset 3, -24
	call	uintFromInt
	movl	%eax, %ebx
	movl	-20(%rbp), %eax
	movl	%eax, %edi
	call	uintFromInt
	movl	%ebx, %esi
	movl	%eax, %edi
	call	longFromTwoUInts
	.loc 1 100 0
	addq	$24, %rsp
	popq	%rbx
	leave
.LCFI23:
	.cfi_def_cfa 7, 8
	ret
	.cfi_endproc
.LFE7:
	.size	longFromTwoInts, .-longFromTwoInts
	.type	longToTwoUInts, @function
longToTwoUInts:
.LFB8:
	.loc 1 101 0
	.cfi_startproc
	pushq	%rbp
.LCFI24:
	.cfi_def_cfa_offset 16
	movq	%rsp, %rbp
	.cfi_offset 6, -16
.LCFI25:
	.cfi_def_cfa_register 6
	movq	%rdi, -8(%rbp)
	movq	%rsi, -16(%rbp)
	movq	%rdx, -24(%rbp)
	.loc 1 102 0
	movq	-8(%rbp), %rax
	movl	%eax, %edx
	movq	-24(%rbp), %rax
	movl	%edx, (%rax)
	.loc 1 103 0
	movq	-8(%rbp), %rax
	shrq	$32, %rax
	movl	%eax, %edx
	movq	-16(%rbp), %rax
	movl	%edx, (%rax)
	.loc 1 104 0
	leave
.LCFI26:
	.cfi_def_cfa 7, 8
	ret
	.cfi_endproc
.LFE8:
	.size	longToTwoUInts, .-longToTwoUInts
	.type	longToTwoUInts_New, @function
longToTwoUInts_New:
.LFB9:
	.loc 1 105 0
	.cfi_startproc
	pushq	%rbp
.LCFI27:
	.cfi_def_cfa_offset 16
	movq	%rsp, %rbp
	.cfi_offset 6, -16
.LCFI28:
	.cfi_def_cfa_register 6
	movq	%rdi, -24(%rbp)
	movq	%rsi, -32(%rbp)
	movq	%rdx, -40(%rbp)
	.loc 1 106 0
	movq	-24(%rbp), %rax
	movq	%rax, -16(%rbp)
	.loc 1 107 0
	movl	-12(%rbp), %edx
	movq	-32(%rbp), %rax
	movl	%edx, (%rax)
	.loc 1 108 0
	movl	-16(%rbp), %edx
	movq	-40(%rbp), %rax
	movl	%edx, (%rax)
	.loc 1 109 0
	leave
.LCFI29:
	.cfi_def_cfa 7, 8
	ret
	.cfi_endproc
.LFE9:
	.size	longToTwoUInts_New, .-longToTwoUInts_New
	.type	longToTwoInts, @function
longToTwoInts:
.LFB10:
	.loc 1 111 0
	.cfi_startproc
	pushq	%rbp
.LCFI30:
	.cfi_def_cfa_offset 16
	movq	%rsp, %rbp
	.cfi_offset 6, -16
.LCFI31:
	.cfi_def_cfa_register 6
	subq	$48, %rsp
	movq	%rdi, -24(%rbp)
	movq	%rsi, -32(%rbp)
	movq	%rdx, -40(%rbp)
	.loc 1 113 0
	leaq	-8(%rbp), %rdx
	leaq	-4(%rbp), %rcx
	movq	-24(%rbp), %rax
	movq	%rcx, %rsi
	movq	%rax, %rdi
	call	longToTwoUInts
	.loc 1 114 0
	movl	-4(%rbp), %eax
	movl	%eax, %edi
	call	intFromUInt
	movq	-32(%rbp), %rdx
	movl	%eax, (%rdx)
	.loc 1 115 0
	movl	-8(%rbp), %eax
	movl	%eax, %edi
	call	intFromUInt
	movq	-40(%rbp), %rdx
	movl	%eax, (%rdx)
	.loc 1 116 0
	leave
.LCFI32:
	.cfi_def_cfa 7, 8
	ret
	.cfi_endproc
.LFE10:
	.size	longToTwoInts, .-longToTwoInts
	.type	doubleFromTwoUInts, @function
doubleFromTwoUInts:
.LFB11:
	.loc 1 117 0
	.cfi_startproc
	pushq	%rbp
.LCFI33:
	.cfi_def_cfa_offset 16
	movq	%rsp, %rbp
	.cfi_offset 6, -16
.LCFI34:
	.cfi_def_cfa_register 6
	subq	$32, %rsp
	movl	%edi, -20(%rbp)
	movl	%esi, -24(%rbp)
	.loc 1 118 0
	movl	-24(%rbp), %edx
	movl	-20(%rbp), %eax
	movl	%edx, %esi
	movl	%eax, %edi
	call	longFromTwoUInts
	movq	%rax, -8(%rbp)
	.loc 1 119 0
	movq	-8(%rbp), %rax
	movq	%rax, %rdi
	call	doubleFromLong
	.loc 1 120 0
	leave
.LCFI35:
	.cfi_def_cfa 7, 8
	ret
	.cfi_endproc
.LFE11:
	.size	doubleFromTwoUInts, .-doubleFromTwoUInts
	.type	doubleFromTwoInts, @function
doubleFromTwoInts:
.LFB12:
	.loc 1 121 0
	.cfi_startproc
	pushq	%rbp
.LCFI36:
	.cfi_def_cfa_offset 16
	movq	%rsp, %rbp
	.cfi_offset 6, -16
.LCFI37:
	.cfi_def_cfa_register 6
	pushq	%rbx
	subq	$24, %rsp
	movl	%edi, -20(%rbp)
	movl	%esi, -24(%rbp)
	.loc 1 122 0
	movl	-24(%rbp), %eax
	movl	%eax, %edi
	.cfi_offset 3, -24
	call	uintFromInt
	movl	%eax, %ebx
	movl	-20(%rbp), %eax
	movl	%eax, %edi
	call	uintFromInt
	movl	%ebx, %esi
	movl	%eax, %edi
	call	doubleFromTwoUInts
	.loc 1 123 0
	addq	$24, %rsp
	popq	%rbx
	leave
.LCFI38:
	.cfi_def_cfa 7, 8
	ret
	.cfi_endproc
.LFE12:
	.size	doubleFromTwoInts, .-doubleFromTwoInts
	.type	doubleToTwoUInts, @function
doubleToTwoUInts:
.LFB13:
	.loc 1 124 0
	.cfi_startproc
	pushq	%rbp
.LCFI39:
	.cfi_def_cfa_offset 16
	movq	%rsp, %rbp
	.cfi_offset 6, -16
.LCFI40:
	.cfi_def_cfa_register 6
	subq	$32, %rsp
	movsd	%xmm0, -8(%rbp)
	movq	%rdi, -16(%rbp)
	movq	%rsi, -24(%rbp)
	.loc 1 125 0
	movsd	-8(%rbp), %xmm0
	call	longFromDouble
	movq	-24(%rbp), %rdx
	movq	-16(%rbp), %rcx
	movq	%rcx, %rsi
	movq	%rax, %rdi
	call	longToTwoUInts
	.loc 1 126 0
	leave
.LCFI41:
	.cfi_def_cfa 7, 8
	ret
	.cfi_endproc
.LFE13:
	.size	doubleToTwoUInts, .-doubleToTwoUInts
	.type	doubleToTwoInts, @function
doubleToTwoInts:
.LFB14:
	.loc 1 127 0
	.cfi_startproc
	pushq	%rbp
.LCFI42:
	.cfi_def_cfa_offset 16
	movq	%rsp, %rbp
	.cfi_offset 6, -16
.LCFI43:
	.cfi_def_cfa_register 6
	subq	$48, %rsp
	movsd	%xmm0, -24(%rbp)
	movq	%rdi, -32(%rbp)
	movq	%rsi, -40(%rbp)
	.loc 1 129 0
	leaq	-8(%rbp), %rdx
	leaq	-4(%rbp), %rax
	movsd	-24(%rbp), %xmm0
	movq	%rdx, %rsi
	movq	%rax, %rdi
	call	doubleToTwoUInts
	.loc 1 130 0
	movl	-4(%rbp), %eax
	movl	%eax, %edi
	call	intFromUInt
	movq	-32(%rbp), %rdx
	movl	%eax, (%rdx)
	.loc 1 131 0
	movl	-8(%rbp), %eax
	movl	%eax, %edi
	call	intFromUInt
	movq	-40(%rbp), %rdx
	movl	%eax, (%rdx)
	.loc 1 132 0
	leave
.LCFI44:
	.cfi_def_cfa 7, 8
	ret
	.cfi_endproc
.LFE14:
	.size	doubleToTwoInts, .-doubleToTwoInts
.globl shortFromInt
	.type	shortFromInt, @function
shortFromInt:
.LFB15:
	.loc 1 135 0
	.cfi_startproc
	pushq	%rbp
.LCFI45:
	.cfi_def_cfa_offset 16
	movq	%rsp, %rbp
	.cfi_offset 6, -16
.LCFI46:
	.cfi_def_cfa_register 6
	movl	%edi, -20(%rbp)
	.loc 1 136 0
	movl	-20(%rbp), %eax
	movl	%eax, -16(%rbp)
	movzwl	-14(%rbp), %eax
	.loc 1 137 0
	leave
.LCFI47:
	.cfi_def_cfa 7, 8
	ret
	.cfi_endproc
.LFE15:
	.size	shortFromInt, .-shortFromInt
	.data
	.align 4
	.type	glob, @object
	.size	glob, 4
glob:
	.long	85
	.text
	.type	add32, @function
add32:
.LFB16:
	.loc 1 147 0
	.cfi_startproc
	pushq	%rbp
.LCFI48:
	.cfi_def_cfa_offset 16
	movq	%rsp, %rbp
	.cfi_offset 6, -16
.LCFI49:
	.cfi_def_cfa_register 6
	movl	%edi, -4(%rbp)
	movl	%esi, -8(%rbp)
	.loc 1 149 0
	movl	-8(%rbp), %eax
	movl	-4(%rbp), %edx
	leal	(%rdx,%rax), %eax
	.loc 1 150 0
	leave
.LCFI50:
	.cfi_def_cfa 7, 8
	ret
	.cfi_endproc
.LFE16:
	.size	add32, .-add32
	.type	addU32, @function
addU32:
.LFB17:
	.loc 1 151 0
	.cfi_startproc
	pushq	%rbp
.LCFI51:
	.cfi_def_cfa_offset 16
	movq	%rsp, %rbp
	.cfi_offset 6, -16
.LCFI52:
	.cfi_def_cfa_register 6
	movl	%edi, -4(%rbp)
	movl	%esi, -8(%rbp)
	.loc 1 153 0
	movl	-8(%rbp), %eax
	movl	-4(%rbp), %edx
	leal	(%rdx,%rax), %eax
	.loc 1 154 0
	leave
.LCFI53:
	.cfi_def_cfa 7, 8
	ret
	.cfi_endproc
.LFE17:
	.size	addU32, .-addU32
	.type	add16, @function
add16:
.LFB18:
	.loc 1 155 0
	.cfi_startproc
	pushq	%rbp
.LCFI54:
	.cfi_def_cfa_offset 16
	movq	%rsp, %rbp
	.cfi_offset 6, -16
.LCFI55:
	.cfi_def_cfa_register 6
	movl	%edi, %edx
	movl	%esi, %eax
	movw	%dx, -4(%rbp)
	movw	%ax, -8(%rbp)
	.loc 1 155 0
	movzwl	-4(%rbp), %edx
	movzwl	-8(%rbp), %eax
	leal	(%rdx,%rax), %eax
	leave
.LCFI56:
	.cfi_def_cfa 7, 8
	ret
	.cfi_endproc
.LFE18:
	.size	add16, .-add16
	.type	cast32to16, @function
cast32to16:
.LFB19:
	.loc 1 156 0
	.cfi_startproc
	pushq	%rbp
.LCFI57:
	.cfi_def_cfa_offset 16
	movq	%rsp, %rbp
	.cfi_offset 6, -16
.LCFI58:
	.cfi_def_cfa_register 6
	movl	%edi, -4(%rbp)
	.loc 1 156 0
	movl	-4(%rbp), %eax
	leave
.LCFI59:
	.cfi_def_cfa 7, 8
	ret
	.cfi_endproc
.LFE19:
	.size	cast32to16, .-cast32to16
	.section	.rodata
.LC0:
	.string	"add64 %ld + %ld \n"
	.text
	.type	add64, @function
add64:
.LFB20:
	.loc 1 157 0
	.cfi_startproc
	pushq	%rbp
.LCFI60:
	.cfi_def_cfa_offset 16
	movq	%rsp, %rbp
	.cfi_offset 6, -16
.LCFI61:
	.cfi_def_cfa_register 6
	subq	$16, %rsp
	movq	%rdi, -8(%rbp)
	movq	%rsi, -16(%rbp)
	.loc 1 158 0
	movl	$.LC0, %eax
	movq	-16(%rbp), %rdx
	movq	-8(%rbp), %rcx
	movq	%rcx, %rsi
	movq	%rax, %rdi
	movl	$0, %eax
	call	printf
	.loc 1 159 0
	movq	-16(%rbp), %rax
	movq	-8(%rbp), %rdx
	leaq	(%rdx,%rax), %rax
	.loc 1 160 0
	leave
.LCFI62:
	.cfi_def_cfa 7, 8
	ret
	.cfi_endproc
.LFE20:
	.size	add64, .-add64
	.section	.rodata
.LC1:
	.string	"addU64 %lu + %lu \n"
	.text
	.type	addU64, @function
addU64:
.LFB21:
	.loc 1 161 0
	.cfi_startproc
	pushq	%rbp
.LCFI63:
	.cfi_def_cfa_offset 16
	movq	%rsp, %rbp
	.cfi_offset 6, -16
.LCFI64:
	.cfi_def_cfa_register 6
	subq	$16, %rsp
	movq	%rdi, -8(%rbp)
	movq	%rsi, -16(%rbp)
	.loc 1 162 0
	movl	$.LC1, %eax
	movq	-16(%rbp), %rdx
	movq	-8(%rbp), %rcx
	movq	%rcx, %rsi
	movq	%rax, %rdi
	movl	$0, %eax
	call	printf
	.loc 1 163 0
	movq	-16(%rbp), %rax
	movq	-8(%rbp), %rdx
	leaq	(%rdx,%rax), %rax
	.loc 1 164 0
	leave
.LCFI65:
	.cfi_def_cfa 7, 8
	ret
	.cfi_endproc
.LFE21:
	.size	addU64, .-addU64
	.type	addFloat, @function
addFloat:
.LFB22:
	.loc 1 165 0
	.cfi_startproc
	pushq	%rbp
.LCFI66:
	.cfi_def_cfa_offset 16
	movq	%rsp, %rbp
	.cfi_offset 6, -16
.LCFI67:
	.cfi_def_cfa_register 6
	movss	%xmm0, -20(%rbp)
	movss	%xmm1, -24(%rbp)
	.loc 1 165 0
	movss	-20(%rbp), %xmm0
	addss	-24(%rbp), %xmm0
	movss	.LC2(%rip), %xmm1
	addss	%xmm1, %xmm0
	cvttss2si	%xmm0, %eax
	movl	%eax, -4(%rbp)
	cvtsi2ss	-4(%rbp), %xmm0
	leave
.LCFI68:
	.cfi_def_cfa 7, 8
	ret
	.cfi_endproc
.LFE22:
	.size	addFloat, .-addFloat
	.type	addDouble, @function
addDouble:
.LFB23:
	.loc 1 166 0
	.cfi_startproc
	pushq	%rbp
.LCFI69:
	.cfi_def_cfa_offset 16
	movq	%rsp, %rbp
	.cfi_offset 6, -16
.LCFI70:
	.cfi_def_cfa_register 6
	movsd	%xmm0, -8(%rbp)
	movsd	%xmm1, -16(%rbp)
	.loc 1 174 0
	movsd	-8(%rbp), %xmm0
	addsd	-16(%rbp), %xmm0
	.loc 1 175 0
	leave
.LCFI71:
	.cfi_def_cfa 7, 8
	ret
	.cfi_endproc
.LFE23:
	.size	addDouble, .-addDouble
	.type	playWithDoubles, @function
playWithDoubles:
.LFB24:
	.loc 1 177 0
	.cfi_startproc
	pushq	%rbp
.LCFI72:
	.cfi_def_cfa_offset 16
	movq	%rsp, %rbp
	.cfi_offset 6, -16
.LCFI73:
	.cfi_def_cfa_register 6
	subq	$32, %rsp
	movsd	%xmm0, -24(%rbp)
	.loc 1 178 0
	movq	-24(%rbp), %rax
	movq	%rax, -16(%rbp)
	.loc 1 179 0
	movl	$0, -4(%rbp)
	.loc 1 180 0
	movl	$0, -4(%rbp)
	jmp	.L26
.L27:
	.loc 1 181 0 discriminator 2
	movsd	-24(%rbp), %xmm0
	mulsd	-24(%rbp), %xmm0
	movsd	-16(%rbp), %xmm2
	movapd	%xmm0, %xmm1
	movapd	%xmm2, %xmm0
	call	addDouble
	movsd	%xmm0, -16(%rbp)
	.loc 1 180 0 discriminator 2
	addl	$1, -4(%rbp)
.L26:
	.loc 1 180 0 is_stmt 0 discriminator 1
	cmpl	$3, -4(%rbp)
	jle	.L27
	.loc 1 183 0 is_stmt 1
	movq	-16(%rbp), %rax
	movq	%rax, -32(%rbp)
	movsd	-32(%rbp), %xmm0
	.loc 1 184 0
	leave
.LCFI74:
	.cfi_def_cfa 7, 8
	ret
	.cfi_endproc
.LFE24:
	.size	playWithDoubles, .-playWithDoubles
	.type	playWithFloats, @function
playWithFloats:
.LFB25:
	.loc 1 185 0
	.cfi_startproc
	pushq	%rbp
.LCFI75:
	.cfi_def_cfa_offset 16
	movq	%rsp, %rbp
	.cfi_offset 6, -16
.LCFI76:
	.cfi_def_cfa_register 6
	movss	%xmm0, -20(%rbp)
	.loc 1 186 0
	movl	-20(%rbp), %eax
	movl	%eax, -4(%rbp)
	.loc 1 187 0
	movl	$0, -8(%rbp)
	.loc 1 188 0
	movl	$0, -8(%rbp)
	jmp	.L29
.L30:
	.loc 1 189 0 discriminator 2
	movss	-20(%rbp), %xmm0
	mulss	-20(%rbp), %xmm0
	movss	-4(%rbp), %xmm1
	addss	%xmm1, %xmm0
	movss	%xmm0, -4(%rbp)
	.loc 1 188 0 discriminator 2
	addl	$1, -8(%rbp)
.L29:
	.loc 1 188 0 is_stmt 0 discriminator 1
	cmpl	$3, -8(%rbp)
	jle	.L30
	.loc 1 191 0 is_stmt 1
	movss	-4(%rbp), %xmm0
	cvtps2pd	%xmm0, %xmm0
	.loc 1 192 0
	leave
.LCFI77:
	.cfi_def_cfa 7, 8
	ret
	.cfi_endproc
.LFE25:
	.size	playWithFloats, .-playWithFloats
	.type	playWithLongs, @function
playWithLongs:
.LFB26:
	.loc 1 194 0
	.cfi_startproc
	pushq	%rbp
.LCFI78:
	.cfi_def_cfa_offset 16
	movq	%rsp, %rbp
	.cfi_offset 6, -16
.LCFI79:
	.cfi_def_cfa_register 6
	movq	%rdi, -24(%rbp)
	.loc 1 195 0
	movl	glob(%rip), %eax
	subl	$30579, %eax
	cltq
	addq	-24(%rbp), %rax
	movq	%rax, -16(%rbp)
	.loc 1 196 0
	movl	$0, -4(%rbp)
	.loc 1 197 0
	movl	$0, -4(%rbp)
	jmp	.L32
.L33:
	.loc 1 198 0 discriminator 2
	movq	-24(%rbp), %rax
	imulq	-24(%rbp), %rax
	addq	%rax, -16(%rbp)
	.loc 1 197 0 discriminator 2
	addl	$1, -4(%rbp)
.L32:
	.loc 1 197 0 is_stmt 0 discriminator 1
	cmpl	$99, -4(%rbp)
	jle	.L33
	.loc 1 200 0 is_stmt 1
	movq	-16(%rbp), %rax
	.loc 1 201 0
	leave
.LCFI80:
	.cfi_def_cfa 7, 8
	ret
	.cfi_endproc
.LFE26:
	.size	playWithLongs, .-playWithLongs
	.section	.rodata
	.align 8
.LC3:
	.string	"Error: %ld , should be %ld  %d / %d\n"
	.text
	.type	testLongFromUints, @function
testLongFromUints:
.LFB27:
	.loc 1 205 0
	.cfi_startproc
	pushq	%rbp
.LCFI81:
	.cfi_def_cfa_offset 16
	movq	%rsp, %rbp
	.cfi_offset 6, -16
.LCFI82:
	.cfi_def_cfa_register 6
	subq	$32, %rsp
	.loc 1 206 0
	movl	$-1379351218, -16(%rbp)
	movl	$100, -12(%rbp)
	.loc 1 208 0
	leaq	-8(%rbp), %rdx
	leaq	-4(%rbp), %rcx
	movq	-16(%rbp), %rax
	movq	%rcx, %rsi
	movq	%rax, %rdi
	call	longToTwoUInts
	.loc 1 209 0
	movl	-8(%rbp), %edx
	movl	-4(%rbp), %eax
	movl	%edx, %esi
	movl	%eax, %edi
	call	longFromTwoUInts
	movq	%rax, -24(%rbp)
	.loc 1 210 0
	movq	-24(%rbp), %rax
	cmpq	-16(%rbp), %rax
	je	.L34
	.loc 1 211 0
	movl	-8(%rbp), %edi
	movl	-4(%rbp), %ecx
	movl	$.LC3, %eax
	movq	-16(%rbp), %rdx
	movq	-24(%rbp), %rsi
	movl	%edi, %r8d
	movq	%rax, %rdi
	movl	$0, %eax
	call	printf
.L34:
	.loc 1 212 0
	leave
.LCFI83:
	.cfi_def_cfa 7, 8
	ret
	.cfi_endproc
.LFE27:
	.size	testLongFromUints, .-testLongFromUints
	.section	.rodata
	.align 8
.LC5:
	.string	"Error1: %f , should be %f  %d / %d\n"
	.align 8
.LC6:
	.string	"Error2: %f , should be %f  %d / %d\n"
.LC7:
	.string	"Error3:"
.LC8:
	.string	"Error4:"
	.text
	.type	testDoubleFromUint, @function
testDoubleFromUint:
.LFB28:
	.loc 1 213 0
	.cfi_startproc
	pushq	%rbp
.LCFI84:
	.cfi_def_cfa_offset 16
	movq	%rsp, %rbp
	.cfi_offset 6, -16
.LCFI85:
	.cfi_def_cfa_register 6
	subq	$48, %rsp
	.loc 1 214 0
	movabsq	$5377518902347826666, %rax
	movq	%rax, -24(%rbp)
	.loc 1 217 0
	leaq	-16(%rbp), %rdx
	leaq	-12(%rbp), %rax
	movsd	-24(%rbp), %xmm0
	movq	%rdx, %rsi
	movq	%rax, %rdi
	call	doubleToTwoInts
	.loc 1 218 0
	leaq	-8(%rbp), %rdx
	leaq	-4(%rbp), %rax
	movsd	-24(%rbp), %xmm0
	movq	%rdx, %rsi
	movq	%rax, %rdi
	call	doubleToTwoUInts
	.loc 1 219 0
	movl	-16(%rbp), %edx
	movl	-12(%rbp), %eax
	movl	%edx, %esi
	movl	%eax, %edi
	call	doubleFromTwoInts
	movsd	%xmm0, -32(%rbp)
	.loc 1 220 0
	movl	-8(%rbp), %edx
	movl	-4(%rbp), %eax
	movl	%edx, %esi
	movl	%eax, %edi
	call	doubleFromTwoUInts
	movsd	%xmm0, -40(%rbp)
	.loc 1 221 0
	movsd	-32(%rbp), %xmm0
	ucomisd	-24(%rbp), %xmm0
	jp	.L43
	movsd	-32(%rbp), %xmm0
	ucomisd	-24(%rbp), %xmm0
	je	.L37
.L43:
	.loc 1 222 0
	movl	-16(%rbp), %edx
	movl	-12(%rbp), %ecx
	movl	$.LC5, %eax
	movsd	-24(%rbp), %xmm1
	movsd	-32(%rbp), %xmm0
	movl	%ecx, %esi
	movq	%rax, %rdi
	movl	$2, %eax
	call	printf
.L37:
	.loc 1 223 0
	movsd	-40(%rbp), %xmm0
	ucomisd	-24(%rbp), %xmm0
	jp	.L44
	movsd	-40(%rbp), %xmm0
	ucomisd	-24(%rbp), %xmm0
	je	.L39
.L44:
	.loc 1 224 0
	movl	-8(%rbp), %edx
	movl	-4(%rbp), %ecx
	movl	$.LC6, %eax
	movsd	-24(%rbp), %xmm1
	movsd	-40(%rbp), %xmm0
	movl	%ecx, %esi
	movq	%rax, %rdi
	movl	$2, %eax
	call	printf
.L39:
	.loc 1 226 0
	movl	$-8730, -12(%rbp)
	.loc 1 227 0
	movl	-12(%rbp), %eax
	movl	%eax, -8(%rbp)
	.loc 1 228 0
	movl	-12(%rbp), %eax
	movl	%eax, %edi
	call	uintFromInt
	movl	-12(%rbp), %edx
	cmpl	%edx, %eax
	setne	%al
	movzbl	%al, %eax
	movl	%eax, %edi
	call	intFromUInt
	testl	%eax, %eax
	je	.L41
	.loc 1 229 0
	movl	$.LC7, %edi
	call	puts
.L41:
	.loc 1 230 0
	movl	-8(%rbp), %eax
	movl	%eax, %edi
	call	intFromUInt
	movl	%eax, %edx
	movl	-8(%rbp), %eax
	cmpl	%eax, %edx
	setne	%al
	movzbl	%al, %eax
	movl	%eax, %edi
	call	uintFromInt
	testl	%eax, %eax
	je	.L36
	.loc 1 231 0
	movl	$.LC8, %edi
	call	puts
.L36:
	.loc 1 233 0
	leave
.LCFI86:
	.cfi_def_cfa 7, 8
	ret
	.cfi_endproc
.LFE28:
	.size	testDoubleFromUint, .-testDoubleFromUint
	.section	.rodata
.LC9:
	.string	"res2= %d"
.LC13:
	.string	"float: %f \n"
.LC15:
	.string	"double: %f \n"
.LC17:
	.string	"long: %ld \n"
	.text
.globl main1
	.type	main1, @function
main1:
.LFB29:
	.loc 1 235 0
	.cfi_startproc
	pushq	%rbp
.LCFI87:
	.cfi_def_cfa_offset 16
	movq	%rsp, %rbp
	.cfi_offset 6, -16
.LCFI88:
	.cfi_def_cfa_register 6
	subq	$48, %rsp
	.loc 1 237 0
	movl	$1685159, -8(%rbp)
	.loc 1 238 0
	movl	$0, -12(%rbp)
	.loc 1 239 0
	movb	$5, -1(%rbp)
	.loc 1 241 0
	movl	$0, -12(%rbp)
	jmp	.L46
.L47:
	.loc 1 242 0 discriminator 2
	movl	-8(%rbp), %eax
	imull	$119, %eax, %eax
	movl	%eax, -8(%rbp)
	.loc 1 243 0 discriminator 2
	movl	-8(%rbp), %eax
	addl	%eax, %eax
	addl	%eax, -8(%rbp)
	.loc 1 241 0 discriminator 2
	addl	$1, -12(%rbp)
.L46:
	.loc 1 241 0 is_stmt 0 discriminator 1
	cmpl	$4, -12(%rbp)
	jle	.L47
	.loc 1 247 0 is_stmt 1
	movsbl	-1(%rbp), %eax
	movl	-8(%rbp), %edx
	imull	%edx, %eax
	movl	%eax, -8(%rbp)
	.loc 1 248 0
	movl	$715827882, -16(%rbp)
	.loc 1 249 0
	movl	$0, -12(%rbp)
	jmp	.L48
.L49:
	.loc 1 250 0 discriminator 2
	movl	-16(%rbp), %eax
	addl	%eax, -8(%rbp)
	.loc 1 249 0 discriminator 2
	addl	$1, -12(%rbp)
.L48:
	.loc 1 249 0 is_stmt 0 discriminator 1
	cmpl	$19, -12(%rbp)
	jle	.L49
	.loc 1 252 0 is_stmt 1
	movl	$145, %esi
	movl	$32759, %edi
	call	add16
	cwtl
	movl	%eax, -8(%rbp)
	.loc 1 253 0
	movl	$493447, %edi
	call	cast32to16
	movw	%ax, -4(%rbp)
	.loc 1 254 0
	movswl	-4(%rbp), %edx
	movl	$.LC9, %eax
	movl	%edx, %esi
	movq	%rax, %rdi
	movl	$0, %eax
	call	printf
	.loc 1 256 0
	movl	$2147483643, -20(%rbp)
	movl	$8, -24(%rbp)
	movl	-24(%rbp), %edx
	movl	-20(%rbp), %eax
	movl	%edx, %esi
	movl	%eax, %edi
	call	add32
	movl	%eax, -24(%rbp)
	.loc 1 257 0
	movl	$-5, -40(%rbp)
	movl	$2147483647, -36(%rbp)
	movq	$8, -48(%rbp)
	movq	-48(%rbp), %rdx
	movq	-40(%rbp), %rax
	movq	%rdx, %rsi
	movq	%rax, %rdi
	call	add64
	movq	%rax, -48(%rbp)
	.loc 1 258 0
	movl	$0x7f7fffff, %eax
	movl	%eax, -28(%rbp)
	movl	$0x7f7fffff, %eax
	movl	%eax, -32(%rbp)
	movss	-32(%rbp), %xmm1
	movss	-28(%rbp), %xmm0
	call	addFloat
	movss	%xmm0, -32(%rbp)
	.loc 1 260 0
	movss	-28(%rbp), %xmm0
	call	__isnanf
	testl	%eax, %eax
	je	.L50
	.loc 1 260 0 is_stmt 0 discriminator 1
	movl	$0x00000000, %eax
	movl	%eax, -28(%rbp)
.L50:
	.loc 1 262 0 is_stmt 1
	movss	.LC12(%rip), %xmm0
	call	playWithFloats
	movl	$.LC13, %eax
	movq	%rax, %rdi
	movl	$1, %eax
	call	printf
	.loc 1 263 0
	movsd	.LC14(%rip), %xmm0
	call	playWithDoubles
	movl	$.LC15, %eax
	movq	%rax, %rdi
	movl	$1, %eax
	call	printf
	.loc 1 264 0
	movsd	.LC16(%rip), %xmm0
	call	playWithDoubles
	movl	$.LC15, %eax
	movq	%rax, %rdi
	movl	$1, %eax
	call	printf
	.loc 1 265 0
	movl	$2, %edi
	call	playWithLongs
	movq	%rax, %rdx
	movl	$.LC17, %eax
	movq	%rdx, %rsi
	movq	%rax, %rdi
	movl	$0, %eax
	call	printf
	.loc 1 267 0
	movl	$0, %eax
	.loc 1 268 0
	leave
.LCFI89:
	.cfi_def_cfa 7, 8
	ret
	.cfi_endproc
.LFE29:
	.size	main1, .-main1
	.type	ulp, @function
ulp:
.LFB30:
	.loc 1 271 0
	.cfi_startproc
	pushq	%rbp
.LCFI90:
	.cfi_def_cfa_offset 16
	movq	%rsp, %rbp
	.cfi_offset 6, -16
.LCFI91:
	.cfi_def_cfa_register 6
	subq	$16, %rsp
	movsd	%xmm0, -8(%rbp)
	.loc 1 272 0
	movsd	.LC18(%rip), %xmm1
	movsd	-8(%rbp), %xmm0
	call	nextafter
	subsd	-8(%rbp), %xmm0
	movsd	.LC19(%rip), %xmm1
	andpd	%xmm1, %xmm0
	.loc 1 273 0
	leave
.LCFI92:
	.cfi_def_cfa 7, 8
	ret
	.cfi_endproc
.LFE30:
	.size	ulp, .-ulp
	.type	ulpf, @function
ulpf:
.LFB31:
	.loc 1 274 0
	.cfi_startproc
	pushq	%rbp
.LCFI93:
	.cfi_def_cfa_offset 16
	movq	%rsp, %rbp
	.cfi_offset 6, -16
.LCFI94:
	.cfi_def_cfa_register 6
	subq	$16, %rsp
	movss	%xmm0, -4(%rbp)
	.loc 1 275 0
	movss	-4(%rbp), %xmm0
	movss	.LC20(%rip), %xmm1
	call	nextafterf
	subss	-4(%rbp), %xmm0
	movss	.LC21(%rip), %xmm1
	andps	%xmm1, %xmm0
	unpcklps	%xmm0, %xmm0
	cvtps2pd	%xmm0, %xmm0
	.loc 1 276 0
	leave
.LCFI95:
	.cfi_def_cfa 7, 8
	ret
	.cfi_endproc
.LFE31:
	.size	ulpf, .-ulpf
	.type	susp_comp_double, @function
susp_comp_double:
.LFB32:
	.loc 1 279 0
	.cfi_startproc
	pushq	%rbp
.LCFI96:
	.cfi_def_cfa_offset 16
	movq	%rsp, %rbp
	.cfi_offset 6, -16
.LCFI97:
	.cfi_def_cfa_register 6
	subq	$64, %rsp
	.loc 1 280 0
	movabsq	$5281288228340972529, %rax
	movq	%rax, -8(%rbp)
	movabsq	$3954276820081169589, %rax
	movq	%rax, -16(%rbp)
	movabsq	$9218868437227405311, %rax
	movq	%rax, -24(%rbp)
	movabsq	$9218868437227405312, %rax
	movq	%rax, -32(%rbp)
	movabsq	$9221120237041090560, %rax
	movq	%rax, -40(%rbp)
	movl	$0, %eax
	movq	%rax, -48(%rbp)
	.loc 1 281 0
	movl	$0, %eax
	movq	%rax, -56(%rbp)
	.loc 1 282 0
	movsd	-8(%rbp), %xmm0
	addsd	-16(%rbp), %xmm0
	movsd	%xmm0, -56(%rbp)
	.loc 1 283 0
	movsd	-24(%rbp), %xmm0
	addsd	%xmm0, %xmm0
	movsd	%xmm0, -56(%rbp)
	.loc 1 284 0
	movsd	-8(%rbp), %xmm0
	subsd	-16(%rbp), %xmm0
	movsd	%xmm0, -56(%rbp)
	.loc 1 285 0
	movsd	-32(%rbp), %xmm0
	divsd	-32(%rbp), %xmm0
	movsd	%xmm0, -56(%rbp)
	.loc 1 286 0
	movsd	-8(%rbp), %xmm0
	divsd	-48(%rbp), %xmm0
	movsd	%xmm0, -56(%rbp)
	.loc 1 287 0
	movsd	-16(%rbp), %xmm0
	divsd	-48(%rbp), %xmm0
	movsd	%xmm0, -56(%rbp)
	.loc 1 288 0
	movsd	-48(%rbp), %xmm0
	divsd	-48(%rbp), %xmm0
	movsd	%xmm0, -56(%rbp)
	.loc 1 289 0
	movsd	-8(%rbp), %xmm0
	call	ulp
	subsd	-8(%rbp), %xmm0
	addsd	-8(%rbp), %xmm0
	movsd	%xmm0, -56(%rbp)
	.loc 1 290 0
	movq	-8(%rbp), %rax
	movq	%rax, -56(%rbp)
	.loc 1 291 0
	movabsq	$4614500768194494464, %rax
	movq	%rax, -56(%rbp)
	.loc 1 292 0
	leave
.LCFI98:
	.cfi_def_cfa 7, 8
	ret
	.cfi_endproc
.LFE32:
	.size	susp_comp_double, .-susp_comp_double
	.type	susp_comp_float, @function
susp_comp_float:
.LFB33:
	.loc 1 294 0
	.cfi_startproc
	pushq	%rbp
.LCFI99:
	.cfi_def_cfa_offset 16
	movq	%rsp, %rbp
	.cfi_offset 6, -16
.LCFI100:
	.cfi_def_cfa_register 6
	subq	$48, %rsp
	.loc 1 295 0
	movl	$0x7f800000, %eax
	movl	%eax, -4(%rbp)
	movl	$0x00000010, %eax
	movl	%eax, -8(%rbp)
	movl	$0x7f7fffff, %eax
	movl	%eax, -12(%rbp)
	movl	$0x7f800000, %eax
	movl	%eax, -16(%rbp)
	movl	$0x7fc00000, %eax
	movl	%eax, -20(%rbp)
	movl	$0x00000000, %eax
	movl	%eax, -24(%rbp)
	.loc 1 296 0
	movl	$0x00000000, %eax
	movl	%eax, -28(%rbp)
	.loc 1 297 0
	movss	-4(%rbp), %xmm0
	addss	-8(%rbp), %xmm0
	movss	%xmm0, -28(%rbp)
	.loc 1 298 0
	movss	-12(%rbp), %xmm0
	addss	%xmm0, %xmm0
	movss	%xmm0, -28(%rbp)
	.loc 1 299 0
	movss	-4(%rbp), %xmm0
	subss	-8(%rbp), %xmm0
	movss	%xmm0, -28(%rbp)
	.loc 1 300 0
	movss	-16(%rbp), %xmm0
	divss	-16(%rbp), %xmm0
	movss	%xmm0, -28(%rbp)
	.loc 1 301 0
	movss	-4(%rbp), %xmm0
	divss	-24(%rbp), %xmm0
	movss	%xmm0, -28(%rbp)
	.loc 1 302 0
	movss	-8(%rbp), %xmm0
	divss	-24(%rbp), %xmm0
	movss	%xmm0, -28(%rbp)
	.loc 1 303 0
	movss	-24(%rbp), %xmm0
	divss	-24(%rbp), %xmm0
	movss	%xmm0, -28(%rbp)
	.loc 1 304 0
	movss	-4(%rbp), %xmm0
	cvtps2pd	%xmm0, %xmm0
	movsd	%xmm0, -40(%rbp)
	movss	-4(%rbp), %xmm1
	movss	.LC30(%rip), %xmm0
	xorps	%xmm1, %xmm0
	unpcklps	%xmm0, %xmm0
	cvtps2pd	%xmm0, %xmm0
	movsd	%xmm0, -48(%rbp)
	movss	-4(%rbp), %xmm0
	call	ulpf
	addsd	-48(%rbp), %xmm0
	addsd	-40(%rbp), %xmm0
	unpcklpd	%xmm0, %xmm0
	cvtpd2ps	%xmm0, %xmm0
	movss	%xmm0, -28(%rbp)
	.loc 1 305 0
	movl	-4(%rbp), %eax
	movl	%eax, -28(%rbp)
	.loc 1 306 0
	movl	$0x40500000, %eax
	movl	%eax, -28(%rbp)
	.loc 1 307 0
	leave
.LCFI101:
	.cfi_def_cfa 7, 8
	ret
	.cfi_endproc
.LFE33:
	.size	susp_comp_float, .-susp_comp_float
	.type	susp_comp_int, @function
susp_comp_int:
.LFB34:
	.loc 1 309 0
	.cfi_startproc
	pushq	%rbp
.LCFI102:
	.cfi_def_cfa_offset 16
	movq	%rsp, %rbp
	.cfi_offset 6, -16
.LCFI103:
	.cfi_def_cfa_register 6
	.loc 1 310 0
	movl	$2147483647, -4(%rbp)
	movl	$-2147483648, -8(%rbp)
	movl	$-1, -12(%rbp)
	.loc 1 311 0
	movl	$0, -16(%rbp)
	.loc 1 312 0
	movl	-4(%rbp), %eax
	addl	%eax, %eax
	movl	%eax, -16(%rbp)
	.loc 1 313 0
	movl	-4(%rbp), %eax
	imull	-4(%rbp), %eax
	movl	%eax, -16(%rbp)
	.loc 1 314 0
	movl	-8(%rbp), %eax
	negl	%eax
	movl	%eax, -16(%rbp)
	.loc 1 315 0
	movl	-8(%rbp), %eax
	imull	-12(%rbp), %eax
	movl	%eax, -16(%rbp)
	.loc 1 318 0
	movl	-8(%rbp), %eax
	movl	-4(%rbp), %edx
	movl	%edx, %ecx
	subl	%eax, %ecx
	movl	%ecx, %eax
	movl	%eax, -16(%rbp)
	.loc 1 319 0
	leave
.LCFI104:
	.cfi_def_cfa 7, 8
	ret
	.cfi_endproc
.LFE34:
	.size	susp_comp_int, .-susp_comp_int
	.type	susp_comp_Long, @function
susp_comp_Long:
.LFB35:
	.loc 1 321 0
	.cfi_startproc
	pushq	%rbp
.LCFI105:
	.cfi_def_cfa_offset 16
	movq	%rsp, %rbp
	.cfi_offset 6, -16
.LCFI106:
	.cfi_def_cfa_register 6
	.loc 1 322 0
	movl	$-1, -8(%rbp)
	movl	$2147483647, -4(%rbp)
	movl	$0, -16(%rbp)
	movl	$-2147483648, -12(%rbp)
	movq	$-1, -24(%rbp)
	.loc 1 323 0
	movq	$0, -32(%rbp)
	.loc 1 324 0
	movq	-8(%rbp), %rax
	addq	%rax, %rax
	movq	%rax, -32(%rbp)
	.loc 1 325 0
	movq	-8(%rbp), %rax
	imulq	-8(%rbp), %rax
	movq	%rax, -32(%rbp)
	.loc 1 326 0
	movq	-16(%rbp), %rax
	negq	%rax
	movq	%rax, -32(%rbp)
	.loc 1 327 0
	movq	-16(%rbp), %rax
	imulq	-24(%rbp), %rax
	movq	%rax, -32(%rbp)
	.loc 1 328 0
	movq	-16(%rbp), %rax
	movq	-8(%rbp), %rdx
	movq	%rdx, %rcx
	subq	%rax, %rcx
	movq	%rcx, %rax
	movq	%rax, -32(%rbp)
	.loc 1 329 0
	leave
.LCFI107:
	.cfi_def_cfa 7, 8
	ret
	.cfi_endproc
.LFE35:
	.size	susp_comp_Long, .-susp_comp_Long
	.type	susp_comp_short, @function
susp_comp_short:
.LFB36:
	.loc 1 331 0
	.cfi_startproc
	pushq	%rbp
.LCFI108:
	.cfi_def_cfa_offset 16
	movq	%rsp, %rbp
	.cfi_offset 6, -16
.LCFI109:
	.cfi_def_cfa_register 6
	subq	$16, %rsp
	.loc 1 333 0
	movw	$32767, -2(%rbp)
	movw	$-32768, -4(%rbp)
	.loc 1 334 0
	movl	$0, -8(%rbp)
	.loc 1 335 0
	movswl	-2(%rbp), %edx
	movswl	-2(%rbp), %eax
	movl	%edx, %esi
	movl	%eax, %edi
	call	add16
	cwtl
	movl	%eax, -8(%rbp)
	.loc 1 336 0
	movswl	-2(%rbp), %edx
	movswl	-2(%rbp), %eax
	imull	%edx, %eax
	movl	%eax, -8(%rbp)
	.loc 1 337 0
	movswl	-4(%rbp), %eax
	negl	%eax
	movl	%eax, -8(%rbp)
	.loc 1 338 0
	movswl	-2(%rbp), %edx
	movswl	-4(%rbp), %eax
	movl	%edx, %ecx
	subl	%eax, %ecx
	movl	%ecx, %eax
	movl	%eax, -8(%rbp)
	.loc 1 339 0
	leave
.LCFI110:
	.cfi_def_cfa 7, 8
	ret
	.cfi_endproc
.LFE36:
	.size	susp_comp_short, .-susp_comp_short
	.type	suspecious_computations, @function
suspecious_computations:
.LFB37:
	.loc 1 341 0
	.cfi_startproc
	pushq	%rbp
.LCFI111:
	.cfi_def_cfa_offset 16
	movq	%rsp, %rbp
	.cfi_offset 6, -16
.LCFI112:
	.cfi_def_cfa_register 6
	.loc 1 342 0
	movl	$0, %eax
	call	susp_comp_double
	.loc 1 343 0
	movl	$0, %eax
	call	susp_comp_float
	.loc 1 344 0
	movl	$0, %eax
	call	susp_comp_int
	.loc 1 345 0
	movl	$0, %eax
	call	susp_comp_Long
	.loc 1 346 0
	movl	$0, %eax
	call	susp_comp_short
	.loc 1 347 0
	leave
.LCFI113:
	.cfi_def_cfa 7, 8
	ret
	.cfi_endproc
.LFE37:
	.size	suspecious_computations, .-suspecious_computations
	.type	norm_comp_double, @function
norm_comp_double:
.LFB38:
	.loc 1 350 0
	.cfi_startproc
	pushq	%rbp
.LCFI114:
	.cfi_def_cfa_offset 16
	movq	%rsp, %rbp
	.cfi_offset 6, -16
.LCFI115:
	.cfi_def_cfa_register 6
	.loc 1 351 0
	movabsq	$5281288228340972529, %rax
	movq	%rax, -8(%rbp)
	movabsq	$3954276820081169589, %rax
	movq	%rax, -16(%rbp)
	movabsq	$9218868437227405311, %rax
	movq	%rax, -24(%rbp)
	movabsq	$9218868437227405312, %rax
	movq	%rax, -32(%rbp)
	movabsq	$9221120237041090560, %rax
	movq	%rax, -40(%rbp)
	movl	$0, %eax
	movq	%rax, -48(%rbp)
	movabsq	$4614253070214989087, %rax
	movq	%rax, -56(%rbp)
	.loc 1 352 0
	movl	$0, %eax
	movq	%rax, -64(%rbp)
	.loc 1 354 0
	movabsq	$4630544841867001856, %rax
	movq	%rax, -72(%rbp)
	movabsq	$4634837335261839360, %rax
	movq	%rax, -80(%rbp)
	.loc 1 355 0
	movsd	-72(%rbp), %xmm0
	mulsd	-80(%rbp), %xmm0
	movsd	%xmm0, -64(%rbp)
	.loc 1 356 0
	movsd	-72(%rbp), %xmm0
	subsd	-80(%rbp), %xmm0
	movsd	%xmm0, -64(%rbp)
	.loc 1 357 0
	movsd	-72(%rbp), %xmm0
	addsd	-80(%rbp), %xmm0
	movsd	%xmm0, -64(%rbp)
	.loc 1 358 0
	movsd	-72(%rbp), %xmm0
	divsd	-80(%rbp), %xmm0
	movsd	%xmm0, -64(%rbp)
	.loc 1 360 0
	movsd	-8(%rbp), %xmm0
	addsd	%xmm0, %xmm0
	movsd	%xmm0, -64(%rbp)
	.loc 1 361 0
	movsd	-16(%rbp), %xmm0
	addsd	%xmm0, %xmm0
	movsd	%xmm0, -64(%rbp)
	.loc 1 362 0
	movsd	-24(%rbp), %xmm0
	subsd	-24(%rbp), %xmm0
	movsd	%xmm0, -64(%rbp)
	.loc 1 363 0
	movsd	-24(%rbp), %xmm0
	divsd	-24(%rbp), %xmm0
	movsd	%xmm0, -64(%rbp)
	.loc 1 364 0
	movsd	-56(%rbp), %xmm0
	mulsd	-56(%rbp), %xmm0
	movsd	%xmm0, -64(%rbp)
	.loc 1 365 0
	leave
.LCFI116:
	.cfi_def_cfa 7, 8
	ret
	.cfi_endproc
.LFE38:
	.size	norm_comp_double, .-norm_comp_double
	.type	norm_comp_float, @function
norm_comp_float:
.LFB39:
	.loc 1 367 0
	.cfi_startproc
	pushq	%rbp
.LCFI117:
	.cfi_def_cfa_offset 16
	movq	%rsp, %rbp
	.cfi_offset 6, -16
.LCFI118:
	.cfi_def_cfa_register 6
	.loc 1 368 0
	movl	$0x58886c99, %eax
	movl	%eax, -4(%rbp)
	movl	$0x28cf2a64, %eax
	movl	%eax, -8(%rbp)
	movl	$0x7f7fffff, %eax
	movl	%eax, -12(%rbp)
	movl	$0x7f800000, %eax
	movl	%eax, -16(%rbp)
	movl	$0x7fc00000, %eax
	movl	%eax, -20(%rbp)
	movl	$0x00000000, %eax
	movl	%eax, -24(%rbp)
	movl	$0x4048f5c3, %eax
	movl	%eax, -28(%rbp)
	.loc 1 369 0
	movl	$0x00000000, %eax
	movl	%eax, -32(%rbp)
	.loc 1 370 0
	movss	-4(%rbp), %xmm0
	addss	%xmm0, %xmm0
	movss	%xmm0, -32(%rbp)
	.loc 1 371 0
	movss	-8(%rbp), %xmm0
	addss	%xmm0, %xmm0
	movss	%xmm0, -32(%rbp)
	.loc 1 372 0
	movss	-12(%rbp), %xmm0
	subss	-12(%rbp), %xmm0
	movss	%xmm0, -32(%rbp)
	.loc 1 373 0
	movss	-12(%rbp), %xmm0
	divss	-12(%rbp), %xmm0
	movss	%xmm0, -32(%rbp)
	.loc 1 374 0
	movss	-28(%rbp), %xmm0
	mulss	-28(%rbp), %xmm0
	movss	%xmm0, -32(%rbp)
	.loc 1 375 0
	leave
.LCFI119:
	.cfi_def_cfa 7, 8
	ret
	.cfi_endproc
.LFE39:
	.size	norm_comp_float, .-norm_comp_float
	.type	norm_comp_int, @function
norm_comp_int:
.LFB40:
	.loc 1 377 0
	.cfi_startproc
	pushq	%rbp
.LCFI120:
	.cfi_def_cfa_offset 16
	movq	%rsp, %rbp
	.cfi_offset 6, -16
.LCFI121:
	.cfi_def_cfa_register 6
	.loc 1 379 0
	movl	$3, -4(%rbp)
	movl	$5, -8(%rbp)
	movl	$0, -12(%rbp)
	.loc 1 380 0
	movl	-4(%rbp), %eax
	imull	-8(%rbp), %eax
	movl	%eax, -12(%rbp)
	.loc 1 381 0
	movl	-8(%rbp), %eax
	movl	-4(%rbp), %edx
	leal	(%rdx,%rax), %eax
	movl	%eax, -12(%rbp)
	.loc 1 382 0
	movl	-8(%rbp), %eax
	movl	-4(%rbp), %edx
	movl	%edx, %ecx
	subl	%eax, %ecx
	movl	%ecx, %eax
	movl	%eax, -12(%rbp)
	.loc 1 383 0
	movl	-4(%rbp), %eax
	movl	%eax, %edx
	sarl	$31, %edx
	idivl	-8(%rbp)
	movl	%eax, -12(%rbp)
	.loc 1 384 0
	movl	-4(%rbp), %eax
	movl	%eax, %edx
	sarl	$31, %edx
	idivl	-8(%rbp)
	movl	%edx, -12(%rbp)
	.loc 1 387 0
	movl	$3, -16(%rbp)
	movl	$5, -20(%rbp)
	movl	$0, -24(%rbp)
	.loc 1 388 0
	movl	-16(%rbp), %eax
	imull	-20(%rbp), %eax
	movl	%eax, -24(%rbp)
	.loc 1 389 0
	movl	-20(%rbp), %eax
	movl	-16(%rbp), %edx
	leal	(%rdx,%rax), %eax
	movl	%eax, -24(%rbp)
	.loc 1 390 0
	movl	-20(%rbp), %eax
	movl	-16(%rbp), %edx
	movl	%edx, %ecx
	subl	%eax, %ecx
	movl	%ecx, %eax
	movl	%eax, -24(%rbp)
	.loc 1 391 0
	movl	-16(%rbp), %eax
	movl	$0, %edx
	divl	-20(%rbp)
	movl	%eax, -24(%rbp)
	.loc 1 392 0
	movl	-16(%rbp), %eax
	movl	$0, %edx
	divl	-20(%rbp)
	movl	%edx, -24(%rbp)
	.loc 1 393 0
	leave
.LCFI122:
	.cfi_def_cfa 7, 8
	ret
	.cfi_endproc
.LFE40:
	.size	norm_comp_int, .-norm_comp_int
	.type	norm_comp_long, @function
norm_comp_long:
.LFB41:
	.loc 1 395 0
	.cfi_startproc
	pushq	%rbp
.LCFI123:
	.cfi_def_cfa_offset 16
	movq	%rsp, %rbp
	.cfi_offset 6, -16
.LCFI124:
	.cfi_def_cfa_register 6
	.loc 1 397 0
	movq	$3, -8(%rbp)
	movq	$5, -16(%rbp)
	movq	$0, -24(%rbp)
	.loc 1 398 0
	movq	-8(%rbp), %rax
	imulq	-16(%rbp), %rax
	movq	%rax, -24(%rbp)
	.loc 1 399 0
	movq	-16(%rbp), %rax
	movq	-8(%rbp), %rdx
	leaq	(%rdx,%rax), %rax
	movq	%rax, -24(%rbp)
	.loc 1 400 0
	movq	-16(%rbp), %rax
	movq	-8(%rbp), %rdx
	movq	%rdx, %rcx
	subq	%rax, %rcx
	movq	%rcx, %rax
	movq	%rax, -24(%rbp)
	.loc 1 401 0
	movq	-8(%rbp), %rax
	movq	%rax, %rdx
	sarq	$63, %rdx
	idivq	-16(%rbp)
	movq	%rax, -24(%rbp)
	.loc 1 402 0
	movq	-8(%rbp), %rax
	movq	%rax, %rdx
	sarq	$63, %rdx
	idivq	-16(%rbp)
	movq	%rdx, -24(%rbp)
	.loc 1 405 0
	movq	$3, -32(%rbp)
	movq	$5, -40(%rbp)
	movq	$0, -48(%rbp)
	.loc 1 406 0
	movq	-32(%rbp), %rax
	imulq	-40(%rbp), %rax
	movq	%rax, -48(%rbp)
	.loc 1 407 0
	movq	-40(%rbp), %rax
	movq	-32(%rbp), %rdx
	leaq	(%rdx,%rax), %rax
	movq	%rax, -48(%rbp)
	.loc 1 408 0
	movq	-40(%rbp), %rax
	movq	-32(%rbp), %rdx
	movq	%rdx, %rcx
	subq	%rax, %rcx
	movq	%rcx, %rax
	movq	%rax, -48(%rbp)
	.loc 1 409 0
	movq	-32(%rbp), %rax
	movl	$0, %edx
	divq	-40(%rbp)
	movq	%rax, -48(%rbp)
	.loc 1 410 0
	movq	-32(%rbp), %rax
	movl	$0, %edx
	divq	-40(%rbp)
	movq	%rdx, -48(%rbp)
	.loc 1 412 0
	leave
.LCFI125:
	.cfi_def_cfa 7, 8
	ret
	.cfi_endproc
.LFE41:
	.size	norm_comp_long, .-norm_comp_long
	.type	norm_comp_short, @function
norm_comp_short:
.LFB42:
	.loc 1 413 0
	.cfi_startproc
	pushq	%rbp
.LCFI126:
	.cfi_def_cfa_offset 16
	movq	%rsp, %rbp
	.cfi_offset 6, -16
.LCFI127:
	.cfi_def_cfa_register 6
	.loc 1 415 0
	movw	$3, -2(%rbp)
	movw	$5, -4(%rbp)
	movw	$0, -6(%rbp)
	.loc 1 416 0
	movzwl	-2(%rbp), %edx
	movzwl	-4(%rbp), %eax
	imull	%edx, %eax
	movw	%ax, -6(%rbp)
	.loc 1 417 0
	movzwl	-2(%rbp), %edx
	movzwl	-4(%rbp), %eax
	leal	(%rdx,%rax), %eax
	movw	%ax, -6(%rbp)
	.loc 1 418 0
	movzwl	-2(%rbp), %edx
	movzwl	-4(%rbp), %eax
	movl	%edx, %ecx
	subw	%ax, %cx
	movl	%ecx, %eax
	movw	%ax, -6(%rbp)
	.loc 1 419 0
	movswl	-2(%rbp), %eax
	movswl	-4(%rbp), %edx
	movl	%edx, -20(%rbp)
	movl	%eax, %edx
	sarl	$31, %edx
	idivl	-20(%rbp)
	movw	%ax, -6(%rbp)
	.loc 1 420 0
	movswl	-2(%rbp), %eax
	movswl	-4(%rbp), %ecx
	movl	%eax, %edx
	sarl	$31, %edx
	idivl	%ecx
	movl	%edx, %eax
	movw	%ax, -6(%rbp)
	.loc 1 423 0
	movw	$3, -8(%rbp)
	movw	$5, -10(%rbp)
	movw	$0, -12(%rbp)
	.loc 1 424 0
	movzwl	-8(%rbp), %eax
	imulw	-10(%rbp), %ax
	movw	%ax, -12(%rbp)
	.loc 1 425 0
	movzwl	-10(%rbp), %eax
	movzwl	-8(%rbp), %edx
	leal	(%rdx,%rax), %eax
	movw	%ax, -12(%rbp)
	.loc 1 426 0
	movzwl	-10(%rbp), %eax
	movzwl	-8(%rbp), %edx
	movl	%edx, %ecx
	subw	%ax, %cx
	movl	%ecx, %eax
	movw	%ax, -12(%rbp)
	.loc 1 427 0
	movzwl	-8(%rbp), %eax
	movl	$0, %edx
	divw	-10(%rbp)
	movw	%ax, -12(%rbp)
	.loc 1 428 0
	movzwl	-8(%rbp), %eax
	movl	$0, %edx
	divw	-10(%rbp)
	movw	%dx, -12(%rbp)
	.loc 1 429 0
	leave
.LCFI128:
	.cfi_def_cfa 7, 8
	ret
	.cfi_endproc
.LFE42:
	.size	norm_comp_short, .-norm_comp_short
	.type	normal_computations, @function
normal_computations:
.LFB43:
	.loc 1 432 0
	.cfi_startproc
	pushq	%rbp
.LCFI129:
	.cfi_def_cfa_offset 16
	movq	%rsp, %rbp
	.cfi_offset 6, -16
.LCFI130:
	.cfi_def_cfa_register 6
	.loc 1 433 0
	movl	$0, %eax
	call	norm_comp_double
	.loc 1 434 0
	movl	$0, %eax
	call	norm_comp_float
	.loc 1 435 0
	movl	$0, %eax
	call	norm_comp_int
	.loc 1 436 0
	movl	$0, %eax
	call	norm_comp_long
	.loc 1 437 0
	movl	$0, %eax
	call	norm_comp_short
	.loc 1 438 0
	leave
.LCFI131:
	.cfi_def_cfa 7, 8
	ret
	.cfi_endproc
.LFE43:
	.size	normal_computations, .-normal_computations
.globl main
	.type	main, @function
main:
.LFB44:
	.loc 1 442 0
	.cfi_startproc
	pushq	%rbp
.LCFI132:
	.cfi_def_cfa_offset 16
	movq	%rsp, %rbp
	.cfi_offset 6, -16
.LCFI133:
	.cfi_def_cfa_register 6
	.loc 1 443 0
	movl	$0, %eax
	call	suspecious_computations
	.loc 1 444 0
	movl	$0, %eax
	call	normal_computations
	.loc 1 445 0
	movl	$0, %eax
	.loc 1 446 0
	leave
.LCFI134:
	.cfi_def_cfa 7, 8
	ret
	.cfi_endproc
.LFE44:
	.size	main, .-main
	.section	.rodata
	.align 4
.LC2:
	.long	1190062592
	.align 4
.LC12:
	.long	1073741824
	.align 8
.LC14:
	.long	0
	.long	1073741824
	.align 8
.LC16:
	.long	343597384
	.long	1074349998
	.align 8
.LC18:
	.long	0
	.long	2146435072
	.align 16
.LC19:
	.long	4294967295
	.long	2147483647
	.long	0
	.long	0
	.align 4
.LC20:
	.long	2139095040
	.align 16
.LC21:
	.long	2147483647
	.long	0
	.long	0
	.long	0
	.align 16
.LC30:
	.long	2147483648
	.long	0
	.long	0
	.long	0
	.text
.Letext0:
	.section	.note.GNU-stack,"",@progbits
